	.file	"multiple_tasks.c"
	.text
.Ltext0:
	.p2align 4,,15
.globl RandomIntegerCnt
	.type	RandomIntegerCnt, @function
RandomIntegerCnt:
.LFB171:
	.file 1 "multiple_tasks.c"
	.loc 1 304 0
	.cfi_startproc
	.loc 1 305 0
	movl	SeedCnt(%rip), %eax
	movl	$271652039, %edx
	imull	$133, %eax, %ecx
	addl	$81, %ecx
	movl	%ecx, %eax
	imull	%edx
	movl	%ecx, %eax
	sarl	$31, %eax
	sarl	$9, %edx
	subl	%eax, %edx
	imull	$8095, %edx, %edx
	subl	%edx, %ecx
	movl	%ecx, SeedCnt(%rip)
	.loc 1 307 0
	movl	%ecx, %eax
	ret
	.cfi_endproc
.LFE171:
	.size	RandomIntegerCnt, .-RandomIntegerCnt
	.p2align 4,,15
.globl InitSeedCnt
	.type	InitSeedCnt, @function
InitSeedCnt:
.LFB175:
	.loc 1 386 0
	.cfi_startproc
	.loc 1 387 0
	movl	$0, SeedCnt(%rip)
	.loc 1 389 0
	xorl	%eax, %eax
	ret
	.cfi_endproc
.LFE175:
	.size	InitSeedCnt, .-InitSeedCnt
	.p2align 4,,15
.globl RandomIntegerMatMult
	.type	RandomIntegerMatMult, @function
RandomIntegerMatMult:
.LFB177:
	.loc 1 497 0
	.cfi_startproc
	.loc 1 498 0
	movl	SeedMatMult(%rip), %edx
	imull	$133, %edx, %ecx
	movl	$271652039, %edx
	addl	$81, %ecx
	movl	%ecx, %eax
	imull	%edx
	movl	%ecx, %eax
	sarl	$31, %eax
	sarl	$9, %edx
	subl	%eax, %edx
	imull	$8095, %edx, %edx
	subl	%edx, %ecx
	movl	%ecx, SeedMatMult(%rip)
	.loc 1 500 0
	movl	%ecx, %eax
	ret
	.cfi_endproc
.LFE177:
	.size	RandomIntegerMatMult, .-RandomIntegerMatMult
	.p2align 4,,15
.globl InitSeedMatMult
	.type	InitSeedMatMult, @function
InitSeedMatMult:
.LFB181:
	.loc 1 630 0
	.cfi_startproc
	.loc 1 633 0
	movl	$1, SeedMatMult(%rip)
	.loc 1 635 0
	subq	$33, RWCEC_Matmult(%rip)
	.loc 1 636 0
	ret
	.cfi_endproc
.LFE181:
	.size	InitSeedMatMult, .-InitSeedMatMult
	.p2align 4,,15
.globl InitializeBsort
	.type	InitializeBsort, @function
InitializeBsort:
.LFB183:
	.loc 1 743 0
	.cfi_startproc
.LVL0:
	.loc 1 746 0
	movl	$-1, factor(%rip)
	movl	$-2, %eax
	.p2align 4,,10
	.p2align 3
.L10:
	.loc 1 750 0
	movl	%eax, 4(%rdi)
.LVL1:
	subl	$2, %eax
	addq	$4, %rdi
	.loc 1 749 0
	cmpl	$-20002, %eax
	jne	.L10
	.loc 1 752 0
	subq	$260034, RWCEC_Bsort(%rip)
	.loc 1 753 0
	ret
	.cfi_endproc
.LFE183:
	.size	InitializeBsort, .-InitializeBsort
	.section	.rodata.str1.8,"aMS",@progbits,1
	.align 8
.LC0:
	.string	"\n\nEstat\303\255sticas do Processador...\n"
	.section	.rodata.str1.1,"aMS",@progbits,1
.LC1:
	.string	"** cpufreq stats: **"
.LC2:
	.string	"-> "
.LC3:
	.string	"%7u.%02u GHz"
.LC4:
	.string	"%10u MHz"
.LC5:
	.string	"%7u.%01u MHz"
.LC6:
	.string	"%10lu kHz"
.LC8:
	.string	": %.4f%%"
	.section	.rodata.str1.8
	.align 8
.LC9:
	.string	"-> ERROR: frequ\303\252ncias inv\303\241lidas! :("
	.section	.rodata.str1.1
.LC10:
	.string	"\n"
	.section	.rodata.str1.8
	.align 8
.LC11:
	.string	"Tempo Total: (%llu) usertime units -> (USERTIME_UNIT * 10ms = X ms)\n"
	.align 8
.LC12:
	.string	"Num. Total de Transi\303\247\303\265es: (%lu)\n"
	.text
	.p2align 4,,15
.globl print_cpu_stats
	.type	print_cpu_stats, @function
print_cpu_stats:
.LFB170:
	.loc 1 254 0
	.cfi_startproc
.LVL2:
	pushq	%r15
.LCFI0:
	.cfi_def_cfa_offset 16
	pushq	%r14
.LCFI1:
	.cfi_def_cfa_offset 24
	movq	%r8, %r14
	.cfi_offset 14, -24
	.cfi_offset 15, -16
	pushq	%r13
.LCFI2:
	.cfi_def_cfa_offset 32
	movq	%rcx, %r13
	.cfi_offset 13, -32
	pushq	%r12
.LCFI3:
	.cfi_def_cfa_offset 40
	movq	%rdx, %r12
	.cfi_offset 12, -40
	pushq	%rbp
.LCFI4:
	.cfi_def_cfa_offset 48
	movq	%rsi, %rbp
	.cfi_offset 6, -48
	pushq	%rbx
.LCFI5:
	.cfi_def_cfa_offset 56
	movq	%rdi, %rbx
	.cfi_offset 3, -56
	.loc 1 259 0
	movl	$.LC0, %edi
.LVL3:
	.loc 1 254 0
	subq	$8, %rsp
.LCFI6:
	.cfi_def_cfa_offset 64
	.loc 1 259 0
	call	puts
.LVL4:
	.loc 1 260 0
	testq	%rbp, %rbp
	jne	.L39
.L34:
	.loc 1 289 0
	addq	$8, %rsp
	popq	%rbx
.LVL5:
	popq	%rbp
.LVL6:
	popq	%r12
.LVL7:
	popq	%r13
.LVL8:
	popq	%r14
.LVL9:
	popq	%r15
	ret
.LVL10:
	.p2align 4,,10
	.p2align 3
.L39:
	.loc 1 260 0
	testq	%rbx, %rbx
	je	.L34
	.loc 1 261 0
	movl	$.LC1, %edi
	.loc 1 267 0
	movq	%r14, %r15
	.loc 1 261 0
	call	puts
	.loc 1 267 0
	movq	%r14, %rax
	shrq	%r15
	andl	$1, %eax
	orq	%rax, %r15
	.p2align 4,,10
	.p2align 3
.L38:
	.loc 1 262 0
	testq	%rbp, %rbp
	je	.L35
	testq	%rbx, %rbx
	je	.L35
	.loc 1 263 0
	xorl	%eax, %eax
	movl	$.LC2, %edi
	call	printf
	.loc 1 264 0
	movq	(%rbx), %rsi
.LVL11:
	cmpq	(%rbp), %rsi
	je	.L40
	.loc 1 271 0
	movl	$.LC9, %edi
	xorl	%eax, %eax
	call	printf
.LVL12:
.L29:
	.loc 1 275 0
	movq	16(%rbp), %rbp
.LVL13:
	.loc 1 274 0
	movq	16(%rbx), %rbx
.LVL14:
	.loc 1 276 0
	testq	%rbp, %rbp
	jne	.L41
.L35:
	.loc 1 279 0
	movl	$.LC10, %edi
	.loc 1 257 0
	subq	%r12, %r13
.LVL15:
	.loc 1 279 0
	call	puts
	.loc 1 280 0
	xorl	%eax, %eax
	movq	%r14, %rsi
	movl	$.LC11, %edi
	call	printf
	.loc 1 282 0
	testq	%r13, %r13
	jne	.L42
	.loc 1 285 0
	movl	$10, %edi
	call	putchar
.L33:
	.loc 1 289 0
	addq	$8, %rsp
	.loc 1 287 0
	movl	$.LC10, %edi
	.loc 1 289 0
	popq	%rbx
.LVL16:
	popq	%rbp
.LVL17:
	popq	%r12
.LVL18:
	popq	%r13
.LVL19:
	popq	%r14
.LVL20:
	popq	%r15
	.loc 1 287 0
	jmp	puts
.LVL21:
	.p2align 4,,10
	.p2align 3
.L41:
	.loc 1 276 0
	testq	%rbx, %rbx
	je	.L38
	.loc 1 277 0
	movl	$10, %edi
	call	putchar
	.p2align 4,,4
	jmp	.L38
.LVL22:
	.p2align 4,,10
	.p2align 3
.L40:
.LBB104:
.LBB106:
	.loc 1 229 0
	cmpq	$1000000, %rsi
	.p2align 4,,4
	jbe	.L18
	.loc 1 231 0
	movabsq	$3777893186295716171, %rax
	.loc 1 233 0
	movl	$1125899907, %edi
	.loc 1 231 0
	mulq	%rsi
	movq	%rsi, %rax
	shrq	$11, %rdx
	imulq	$10000, %rdx, %rdx
	subq	%rdx, %rax
	movq	%rax, %rdx
	.loc 1 232 0
	leaq	10000(%rsi), %rax
	cmpq	$5000, %rdx
	cmovae	%rax, %rsi
	.loc 1 233 0
	movabsq	$4835703278458516699, %rax
	mulq	%rsi
	movl	$-776530087, %eax
	shrq	$18, %rdx
	imulq	$1000000, %rdx, %rcx
	movl	%esi, %edx
.LVL23:
	subl	%ecx, %edx
	mull	%edx
	movl	%esi, %eax
.LVL24:
	movl	%edx, %ecx
	mull	%edi
	shrl	$13, %ecx
	movl	$.LC3, %edi
	xorl	%eax, %eax
	movl	%edx, %esi
.LVL25:
	movl	%ecx, %edx
	shrl	$18, %esi
	call	printf
.L20:
.LBE106:
.LBE104:
	.loc 1 267 0
	movq	8(%rbp), %rax
	subq	8(%rbx), %rax
	js	.L25
.L43:
	cvtsi2sdq	%rax, %xmm0
	testq	%r14, %r14
	mulsd	.LC7(%rip), %xmm0
	js	.L27
.L44:
	cvtsi2sdq	%r14, %xmm1
.L28:
	divsd	%xmm1, %xmm0
	movl	$.LC8, %edi
	movl	$1, %eax
	call	printf
	jmp	.L29
.LVL26:
	.p2align 4,,10
	.p2align 3
.L18:
.LBB109:
.LBB107:
	.loc 1 235 0
	cmpq	$100000, %rsi
	jbe	.L21
	.loc 1 237 0
	movq	%rsi, %rdx
	movabsq	$2361183241434822607, %rax
	.loc 1 239 0
	movl	$274877907, %ecx
	.loc 1 237 0
	shrq	$3, %rdx
	.loc 1 239 0
	movl	$.LC4, %edi
	.loc 1 237 0
	mulq	%rdx
	movq	%rsi, %rax
	shrq	$4, %rdx
	imulq	$1000, %rdx, %rdx
	subq	%rdx, %rax
	movq	%rax, %rdx
	.loc 1 238 0
	leaq	1000(%rsi), %rax
	cmpq	$500, %rdx
	.loc 1 239 0
	cmovae	%rax, %rsi
.LVL27:
	movl	%esi, %eax
	mull	%ecx
	xorl	%eax, %eax
	movl	%edx, %esi
.LVL28:
	shrl	$6, %esi
	call	printf
.LBE107:
.LBE109:
	.loc 1 267 0
	movq	8(%rbp), %rax
	subq	8(%rbx), %rax
	jns	.L43
.L25:
	movq	%rax, %rdx
	andl	$1, %eax
	shrq	%rdx
	orq	%rax, %rdx
	testq	%r14, %r14
	cvtsi2sdq	%rdx, %xmm0
	addsd	%xmm0, %xmm0
	mulsd	.LC7(%rip), %xmm0
	jns	.L44
.L27:
	cvtsi2sdq	%r15, %xmm1
	addsd	%xmm1, %xmm1
	jmp	.L28
.LVL29:
	.p2align 4,,10
	.p2align 3
.L21:
.LBB110:
.LBB105:
	.loc 1 240 0
	cmpq	$1000, %rsi
	jbe	.L23
	.loc 1 242 0
	movq	%rsi, %rdx
	movabsq	$2951479051793528259, %rax
	.loc 1 244 0
	movl	$274877907, %edi
	.loc 1 242 0
	shrq	$2, %rdx
	mulq	%rdx
	shrq	$2, %rdx
	leaq	(%rdx,%rdx,4), %rax
	leaq	(%rax,%rax,4), %rdx
	movq	%rsi, %rax
	salq	$2, %rdx
	subq	%rdx, %rax
	movq	%rax, %rdx
	.loc 1 243 0
	leaq	100(%rsi), %rax
	cmpq	$50, %rdx
	cmovae	%rax, %rsi
	.loc 1 244 0
	movabsq	$2361183241434822607, %rax
	movq	%rsi, %rdx
	shrq	$3, %rdx
	mulq	%rdx
	movl	$1374389535, %eax
	shrq	$4, %rdx
	imulq	$1000, %rdx, %rcx
	movl	%esi, %edx
.LVL30:
	subl	%ecx, %edx
	mull	%edx
	movl	%esi, %eax
.LVL31:
	movl	%edx, %ecx
	mull	%edi
	shrl	$5, %ecx
	movl	$.LC5, %edi
	xorl	%eax, %eax
	movl	%edx, %esi
.LVL32:
	movl	%ecx, %edx
	shrl	$6, %esi
	call	printf
	jmp	.L20
.LVL33:
	.p2align 4,,10
	.p2align 3
.L42:
.LBE105:
.LBE110:
	.loc 1 283 0
	movq	%r13, %rsi
	movl	$.LC12, %edi
	xorl	%eax, %eax
	call	printf
	jmp	.L33
.LVL34:
	.p2align 4,,10
	.p2align 3
.L23:
.LBB111:
.LBB108:
	.loc 1 247 0
	movl	$.LC6, %edi
	xorl	%eax, %eax
	call	printf
.LVL35:
	jmp	.L20
.LBE108:
.LBE111:
	.cfi_endproc
.LFE170:
	.size	print_cpu_stats, .-print_cpu_stats
	.section	.rodata.str1.8
	.align 8
.LC13:
	.string	"/sys/devices/system/cpu/cpu%u/cpufreq/%s"
	.text
	.p2align 4,,15
.globl sysfs_read_cpu_file
	.type	sysfs_read_cpu_file, @function
sysfs_read_cpu_file:
.LFB149:
	.file 2 "/usr/realtime/include/rtai_lxrt.h"
	.loc 2 1589 0
	.cfi_startproc
.LVL36:
	movq	%rbx, -24(%rsp)
	movq	%rbp, -16(%rsp)
	movq	%rsi, %r8
	movq	%r12, -8(%rsp)
	subq	$280, %rsp
.LCFI7:
	.cfi_def_cfa_offset 288
	.loc 2 1594 0
	movl	$255, %esi
.LVL37:
	xorl	%eax, %eax
	.loc 2 1589 0
	movq	%rdx, %rbp
	.cfi_offset 12, -16
	.cfi_offset 6, -24
	.cfi_offset 3, -32
	movq	%rcx, %r12
	.loc 2 1594 0
	movl	$.LC13, %edx
.LVL38:
	movl	%edi, %ecx
.LVL39:
	movq	%rsp, %rdi
.LVL40:
	call	snprintf
.LVL41:
	.loc 2 1596 0
	xorl	%esi, %esi
	xorl	%eax, %eax
	movq	%rsp, %rdi
	call	open
	movl	%eax, %ebx
.LVL42:
	xorl	%eax, %eax
	cmpl	$-1, %ebx
	je	.L47
	.loc 2 1599 0
	leaq	-1(%r12), %rdx
	movq	%rbp, %rsi
	movl	%ebx, %edi
	call	read
	.loc 2 1600 0
	testq	%rax, %rax
	.loc 2 1599 0
	movq	%rax, %r12
.LVL43:
	.loc 2 1600 0
	je	.L50
	.loc 2 1606 0
	movb	$0, (%rbp,%rax)
	.loc 2 1607 0
	movl	%ebx, %edi
	call	close
	.loc 2 1609 0
	movl	%r12d, %eax
.LVL44:
.L47:
	.loc 2 1610 0
	movq	256(%rsp), %rbx
.LVL45:
	movq	264(%rsp), %rbp
.LVL46:
	movq	272(%rsp), %r12
.LVL47:
	addq	$280, %rsp
	ret
.LVL48:
	.p2align 4,,10
	.p2align 3
.L50:
	.loc 2 1602 0
	movl	%ebx, %edi
	call	close
	xorl	%eax, %eax
	.loc 2 1603 0
	jmp	.L47
	.cfi_endproc
.LFE149:
	.size	sysfs_read_cpu_file, .-sysfs_read_cpu_file
	.section	.rodata.str1.1
.LC14:
	.string	"stats/total_trans"
	.text
	.p2align 4,,15
	.type	T.234, @function
T.234:
.LFB193:
	.loc 2 1612 0
	.cfi_startproc
	movq	%rbx, -16(%rsp)
	movq	%rbp, -8(%rsp)
	subq	$296, %rsp
.LCFI8:
	.cfi_def_cfa_offset 304
	.loc 2 1622 0
	xorl	%edi, %edi
	movl	$255, %ecx
	movq	%rsp, %rdx
	movl	$.LC14, %esi
	.cfi_offset 6, -16
	.cfi_offset 3, -24
	call	sysfs_read_cpu_file
	testl	%eax, %eax
.LVL49:
	jne	.L55
.LVL50:
.L52:
	.loc 2 1629 0
	xorl	%ebp, %ebp
.L53:
	.loc 2 1633 0
	movq	%rbp, %rax
.LVL51:
	movq	280(%rsp), %rbx
	movq	288(%rsp), %rbp
.LVL52:
	addq	$296, %rsp
	ret
.LVL53:
	.p2align 4,,10
	.p2align 3
.L55:
	.loc 2 1627 0
	leaq	264(%rsp), %rsi
	xorl	%edx, %edx
	movq	%rsp, %rdi
	call	strtoul
.LVL54:
	.loc 2 1629 0
	cmpq	%rsp, 264(%rsp)
.LVL55:
	.loc 2 1627 0
	movq	%rax, %rbp
.LVL56:
	.loc 2 1629 0
	je	.L52
	call	__errno_location
	cmpl	$34, (%rax)
	jne	.L53
	.p2align 4,,6
	jmp	.L52
	.cfi_endproc
.LFE193:
	.size	T.234, .-T.234
	.p2align 4,,15
	.type	T.235, @function
T.235:
.LFB194:
	.file 3 "/usr/realtime/include/asm/rtai_lxrt.h"
	.loc 3 307 0
	.cfi_startproc
.LVL57:
.LBB116:
.LBB117:
	.loc 3 300 0
	salq	$12, %rsi
.LVL58:
	orq	$2048, %rdi
.LVL59:
.LBE117:
.LBE116:
	.loc 3 307 0
	subq	$24, %rsp
.LCFI9:
	.cfi_def_cfa_offset 32
.LBB119:
.LBB118:
	.loc 3 300 0
	orq	%rsi, %rdi
	movq	%rsp, %rcx
	xorl	%eax, %eax
	movq	%rdi, %rsi
	movl	$1879048192, %edi
	call	syscall
.LVL60:
.LBE118:
.LBE119:
	.loc 3 310 0
	movq	(%rsp), %rax
	addq	$24, %rsp
	ret
	.cfi_endproc
.LFE194:
	.size	T.235, .-T.235
	.section	.rodata.str1.8
	.align 8
.LC15:
	.string	"%s[TASK %d] Processando... %3d%% ==============> Freq: %8d Khz ==============> Curr Freq: %8d Khz\n"
	.text
	.p2align 4,,15
.globl SumCnt
	.type	SumCnt, @function
SumCnt:
.LFB173:
	.loc 1 327 0
	.cfi_startproc
.LVL61:
	pushq	%r15
.LCFI10:
	.cfi_def_cfa_offset 16
	movl	$7000, %r10d
	orl	$-1, %ecx
.LVL62:
	.loc 1 355 0
	movl	$71804841, %r11d
	.loc 1 327 0
	pushq	%r14
.LCFI11:
	.cfi_def_cfa_offset 24
	xorl	%r14d, %r14d
	.cfi_offset 14, -24
	.cfi_offset 15, -16
.LVL63:
	pushq	%r13
.LCFI12:
	.cfi_def_cfa_offset 32
	xorl	%r13d, %r13d
	.cfi_offset 13, -32
.LVL64:
	pushq	%r12
.LCFI13:
	.cfi_def_cfa_offset 40
	movq	%rdi, %r12
	.cfi_offset 12, -40
	pushq	%rbp
.LCFI14:
	.cfi_def_cfa_offset 48
	xorl	%ebp, %ebp
	.cfi_offset 6, -48
.LVL65:
	pushq	%rbx
.LCFI15:
	.cfi_def_cfa_offset 56
	xorl	%ebx, %ebx
	.cfi_offset 3, -56
.LVL66:
	subq	$136, %rsp
.LCFI16:
	.cfi_def_cfa_offset 192
.LVL67:
	.p2align 4,,10
	.p2align 3
.L59:
	.loc 1 339 0
	xorl	%eax, %eax
	jmp	.L62
	.p2align 4,,10
	.p2align 3
.L68:
	.loc 1 349 0
	addq	$4, %rax
	.loc 1 344 0
	addl	%edx, %ebx
	.loc 1 345 0
	addl	$1, %ebp
	.loc 1 341 0
	cmpq	$28000, %rax
	je	.L67
.L62:
	.loc 1 343 0
	movl	(%r12,%rax), %edx
	testl	%edx, %edx
	jns	.L68
	.loc 1 349 0
	addq	$4, %rax
	.loc 1 348 0
	addl	%edx, %r13d
.LVL68:
	.loc 1 349 0
	addl	$1, %r14d
.LVL69:
	.loc 1 341 0
	cmpq	$28000, %rax
	jne	.L62
.L67:
	.loc 1 355 0
	movl	%r10d, %eax
	.loc 1 353 0
	subq	$119010, RWCEC_Cnt(%rip)
	.loc 1 355 0
	imull	%r11d
	movl	%r10d, %eax
	sarl	$31, %eax
	movl	%edx, %r15d
	sarl	$13, %r15d
	subl	%eax, %r15d
	.loc 1 356 0
	movl	$1717986919, %eax
	imull	%r15d
	movl	%r15d, %eax
	sarl	$31, %eax
	sarl	$2, %edx
	subl	%eax, %edx
	leal	(%rdx,%rdx,4), %edx
	leal	(%rdx,%rdx), %eax
	cmpl	%eax, %r15d
	je	.L69
.L63:
.LBB138:
.LBB139:
.LBB140:
.LBB142:
.LBB144:
.LBB146:
	.loc 3 300 0
	addl	$7000, %r10d
	addq	$28000, %r12
.LBE146:
.LBE144:
.LBE142:
.LBE140:
.LBE139:
.LBE138:
	.loc 1 339 0
	cmpl	$49007000, %r10d
	jne	.L59
	.loc 1 370 0
	movslq	%ebx,%rbx
.LVL70:
	.loc 1 371 0
	movslq	%ebp,%rbp
.LVL71:
	.loc 1 372 0
	movslq	%r13d,%r13
.LVL72:
	.loc 1 373 0
	movslq	%r14d,%r14
.LVL73:
	.loc 1 370 0
	movq	%rbx, Postotal(%rip)
	.loc 1 371 0
	movq	%rbp, Poscnt(%rip)
	.loc 1 372 0
	movq	%r13, Negtotal(%rip)
	.loc 1 373 0
	movq	%r14, Negcnt(%rip)
	.loc 1 374 0
	addq	$136, %rsp
	popq	%rbx
.LVL74:
	popq	%rbp
.LVL75:
	popq	%r12
	popq	%r13
.LVL76:
	popq	%r14
.LVL77:
	popq	%r15
.LVL78:
	ret
.LVL79:
.L69:
	.loc 1 356 0
	cmpl	%ecx, %r15d
	je	.L63
.LBB153:
.LBB154:
.LBB156:
.LBB158:
.LBB160:
.LBB162:
	.loc 3 300 0
	leaq	96(%rsp), %rcx
.LVL80:
	leaq	112(%rsp), %rdx
	movl	$1005572, %esi
	movl	$1879048192, %edi
.LVL81:
	xorl	%eax, %eax
	movl	%r10d, 8(%rsp)
	movl	%r11d, 16(%rsp)
.LBE162:
.LBE160:
.LBE158:
.LBE156:
	.loc 2 1739 0
	movl	$0, 112(%rsp)
.LBB155:
.LBB157:
.LBB159:
.LBB161:
	.loc 3 300 0
	call	syscall
.LBE161:
.LBE159:
.LBE157:
.LBE155:
.LBE154:
.LBE153:
.LBB168:
.LBB170:
	.loc 2 1528 0
	movq	Task_Cnt(%rip), %rax
.LBE170:
.LBE168:
.LBB184:
.LBB167:
.LBB166:
.LBB165:
.LBB164:
.LBB163:
	.loc 3 304 0
	movq	96(%rsp), %r9
.LBE163:
.LBE164:
.LBE165:
.LBE166:
.LBE167:
.LBE184:
.LBB185:
.LBB169:
.LBB172:
.LBB174:
.LBB176:
.LBB178:
	.loc 3 300 0
	leaq	64(%rsp), %rcx
	leaq	80(%rsp), %rdx
	movl	$968712, %esi
	movl	$1879048192, %edi
.LBE178:
.LBE176:
.LBE174:
.LBE172:
	.loc 2 1528 0
	movq	%rax, 80(%rsp)
.LBB171:
.LBB173:
.LBB175:
.LBB177:
	.loc 3 300 0
	xorl	%eax, %eax
	movq	%r9, 24(%rsp)
	call	syscall
.LBE177:
.LBE175:
.LBE173:
.LBE171:
.LBE169:
.LBE185:
	.loc 1 362 0
	movl	idTaskCnt(%rip), %edx
.LBB186:
.LBB183:
.LBB182:
.LBB181:
.LBB180:
.LBB179:
	.loc 3 304 0
	movq	64(%rsp), %r8
.LBE179:
.LBE180:
.LBE181:
.LBE182:
.LBE183:
.LBE186:
	.loc 1 362 0
	movl	%r15d, %ecx
	movq	24(%rsp), %r9
	movl	$.LC15, %edi
	movslq	%edx,%rax
	.loc 1 359 0
	movl	%r8d, cpuFrequencyAtual_Cnt(%rip)
	.loc 1 362 0
	leaq	arrayTextoCorIdTask(,%rax,8), %rsi
	xorl	%eax, %eax
	call	printf
.LBB187:
.LBB152:
	.loc 2 1510 0
	movq	Task_Cnt(%rip), %rax
.LBB150:
.LBB141:
.LBB143:
.LBB145:
	.loc 3 300 0
	leaq	48(%rsp), %rcx
	leaq	32(%rsp), %rdx
	movl	$956432, %esi
	movl	$1879048192, %edi
.LBE145:
.LBE143:
.LBE141:
.LBE150:
	.loc 2 1510 0
	movq	%rax, 32(%rsp)
	movq	RWCEC_Cnt(%rip), %rax
	movq	%rax, 40(%rsp)
.LBB151:
.LBB149:
.LBB148:
.LBB147:
	.loc 3 300 0
	xorl	%eax, %eax
	call	syscall
	movl	%r15d, %ecx
.LVL82:
	movl	16(%rsp), %r11d
	movl	8(%rsp), %r10d
	jmp	.L63
.LBE147:
.LBE148:
.LBE149:
.LBE151:
.LBE152:
.LBE187:
	.cfi_endproc
.LFE173:
	.size	SumCnt, .-SumCnt
	.p2align 4,,15
.globl BubbleSort
	.type	BubbleSort, @function
BubbleSort:
.LFB184:
	.loc 1 757 0
	.cfi_startproc
.LVL83:
	pushq	%r15
.LCFI17:
	.cfi_def_cfa_offset 16
	orl	$-1, %ecx
.LVL84:
	pushq	%r14
.LCFI18:
	.cfi_def_cfa_offset 24
	.loc 1 785 0
	movl	$1125899907, %r14d
	.cfi_offset 14, -24
	.cfi_offset 15, -16
	.loc 1 757 0
	pushq	%r13
.LCFI19:
	.cfi_def_cfa_offset 32
	movl	$20000, %r13d
	.cfi_offset 13, -32
	pushq	%r12
.LCFI20:
	.cfi_def_cfa_offset 40
	pushq	%rbp
.LCFI21:
	.cfi_def_cfa_offset 48
	pushq	%rbx
.LCFI22:
	.cfi_def_cfa_offset 56
	movq	%rdi, %rbx
	.cfi_offset 3, -56
	.cfi_offset 6, -48
	.cfi_offset 12, -40
	subq	$104, %rsp
.LCFI23:
	.cfi_def_cfa_offset 160
.LVL85:
	.p2align 4,,10
	.p2align 3
.L71:
	.loc 1 766 0
	xorl	%eax, %eax
	movl	$1, %ebp
	.p2align 4,,10
	.p2align 3
.L73:
	.loc 1 774 0
	movl	4(%rbx,%rax), %edx
	movl	8(%rbx,%rax), %esi
	cmpl	%esi, %edx
	jl	.L72
	.loc 1 777 0
	movl	%esi, 4(%rbx,%rax)
	.loc 1 778 0
	movl	%edx, 8(%rbx,%rax)
	xorl	%ebp, %ebp
.LVL86:
.L72:
	addq	$4, %rax
	.loc 1 769 0
	cmpq	$39996, %rax
	jne	.L73
	.loc 1 785 0
	movl	%r13d, %eax
	.loc 1 783 0
	subq	$300025, RWCEC_Bsort(%rip)
	.loc 1 785 0
	imull	%r14d
	movl	%r13d, %eax
	sarl	$31, %eax
	movl	%edx, %r12d
	.loc 1 786 0
	movl	$1717986919, %edx
	.loc 1 785 0
	sarl	$18, %r12d
	subl	%eax, %r12d
	.loc 1 786 0
	movl	%r12d, %eax
	imull	%edx
	movl	%r12d, %eax
	sarl	$31, %eax
	sarl	$2, %edx
	subl	%eax, %edx
	leal	(%rdx,%rdx,4), %edx
	leal	(%rdx,%rdx), %eax
	cmpl	%eax, %r12d
	je	.L78
.L74:
	.loc 1 799 0
	testl	%ebp, %ebp
	jne	.L76
	addl	$10000, %r13d
	.loc 1 766 0
	cmpl	$100010000, %r13d
	jne	.L71
.L76:
	.loc 1 802 0
	addq	$104, %rsp
	popq	%rbx
.LVL87:
	popq	%rbp
.LVL88:
	popq	%r12
.LVL89:
	popq	%r13
	popq	%r14
	popq	%r15
	ret
.LVL90:
.L78:
	.loc 1 786 0
	cmpl	%ecx, %r12d
	je	.L74
.LBB206:
.LBB207:
.LBB209:
.LBB211:
.LBB213:
.LBB215:
	.loc 3 300 0
	leaq	64(%rsp), %rcx
.LVL91:
	leaq	80(%rsp), %rdx
	movl	$1005572, %esi
	movl	$1879048192, %edi
	xorl	%eax, %eax
.LBE215:
.LBE213:
.LBE211:
.LBE209:
	.loc 2 1739 0
	movl	$0, 80(%rsp)
.LBB208:
.LBB210:
.LBB212:
.LBB214:
	.loc 3 300 0
	call	syscall
.LBE214:
.LBE212:
.LBE210:
.LBE208:
.LBE207:
.LBE206:
.LBB221:
.LBB223:
	.loc 2 1528 0
	movq	Task_Bsort(%rip), %rax
.LBB225:
.LBB227:
.LBB229:
.LBB231:
	.loc 3 300 0
	leaq	32(%rsp), %rcx
	leaq	48(%rsp), %rdx
	movl	$968712, %esi
	movl	$1879048192, %edi
.LBE231:
.LBE229:
.LBE227:
.LBE225:
.LBE223:
.LBE221:
.LBB237:
.LBB220:
.LBB219:
.LBB218:
.LBB217:
.LBB216:
	.loc 3 304 0
	movq	64(%rsp), %r15
.LBE216:
.LBE217:
.LBE218:
.LBE219:
.LBE220:
.LBE237:
.LBB238:
.LBB222:
	.loc 2 1528 0
	movq	%rax, 48(%rsp)
.LBB224:
.LBB226:
.LBB228:
.LBB230:
	.loc 3 300 0
	xorl	%eax, %eax
	call	syscall
.LBE230:
.LBE228:
.LBE226:
.LBE224:
.LBE222:
.LBE238:
	.loc 1 792 0
	movl	idTaskBsort(%rip), %edx
.LBB239:
.LBB236:
.LBB235:
.LBB234:
.LBB233:
.LBB232:
	.loc 3 304 0
	movq	32(%rsp), %r8
.LBE232:
.LBE233:
.LBE234:
.LBE235:
.LBE236:
.LBE239:
	.loc 1 792 0
	movl	%r15d, %r9d
	movl	%r12d, %ecx
	movl	$.LC15, %edi
	movslq	%edx,%rax
	.loc 1 789 0
	movl	%r8d, cpuFrequencyAtual_Bsort(%rip)
	.loc 1 792 0
	leaq	arrayTextoCorIdTask(,%rax,8), %rsi
	xorl	%eax, %eax
	call	printf
.LBB240:
.LBB241:
	.loc 2 1510 0
	movq	Task_Bsort(%rip), %rax
.LBB242:
.LBB243:
.LBB244:
.LBB245:
	.loc 3 300 0
	leaq	16(%rsp), %rcx
	movq	%rsp, %rdx
	movl	$956432, %esi
	movl	$1879048192, %edi
.LBE245:
.LBE244:
.LBE243:
.LBE242:
	.loc 2 1510 0
	movq	%rax, (%rsp)
	movq	RWCEC_Bsort(%rip), %rax
	movq	%rax, 8(%rsp)
.LBB249:
.LBB248:
.LBB247:
.LBB246:
	.loc 3 300 0
	xorl	%eax, %eax
	call	syscall
	movl	%r12d, %ecx
.LVL92:
	jmp	.L74
.LBE246:
.LBE247:
.LBE248:
.LBE249:
.LBE241:
.LBE240:
	.cfi_endproc
.LFE184:
	.size	BubbleSort, .-BubbleSort
	.p2align 4,,15
.globl InitializeMatMult
	.type	InitializeMatMult, @function
InitializeMatMult:
.LFB178:
	.loc 1 504 0
	.cfi_startproc
.LVL93:
	pushq	%r12
.LCFI24:
	.cfi_def_cfa_offset 16
	xorl	%r12d, %r12d
	.cfi_offset 12, -16
.LVL94:
	pushq	%rbp
.LCFI25:
	.cfi_def_cfa_offset 24
	movq	%rdi, %rbp
	.cfi_offset 6, -24
	pushq	%rbx
.LCFI26:
	.cfi_def_cfa_offset 32
	subq	$32, %rsp
.LCFI27:
	.cfi_def_cfa_offset 64
	.p2align 4,,10
	.p2align 3
.L80:
	.loc 1 515 0
	xorl	%ebx, %ebx
	.cfi_offset 3, -32
	.p2align 4,,10
	.p2align 3
.L81:
	.loc 1 535 0
	call	RandomIntegerMatMult
.LVL95:
	movl	%eax, (%rbp,%rbx)
	addq	$4, %rbx
	.loc 1 527 0
	cmpq	$3080, %rbx
	jne	.L81
	.loc 1 515 0
	addl	$1, %r12d
.LVL96:
	addq	$3080, %rbp
	cmpl	$770, %r12d
	jne	.L80
	.loc 1 541 0
	movq	RWCEC_Matmult(%rip), %rax
.LBB256:
.LBB258:
	.loc 2 1510 0
	movq	Task_Matmult(%rip), %rdx
.LBB260:
.LBB262:
.LBB264:
.LBB266:
	.loc 3 300 0
	leaq	16(%rsp), %rcx
	movl	$956432, %esi
	movl	$1879048192, %edi
.LBE266:
.LBE264:
.LBE262:
.LBE260:
.LBE258:
.LBE256:
	.loc 1 541 0
	subq	$19569558, %rax
.LBB272:
.LBB257:
	.loc 2 1510 0
	movq	%rdx, (%rsp)
.LBB259:
.LBB261:
.LBB263:
.LBB265:
	.loc 3 300 0
	movq	%rsp, %rdx
.LBE265:
.LBE263:
.LBE261:
.LBE259:
	.loc 2 1510 0
	movq	%rax, 8(%rsp)
.LBE257:
.LBE272:
	.loc 1 541 0
	movq	%rax, RWCEC_Matmult(%rip)
.LBB273:
.LBB271:
.LBB270:
.LBB269:
.LBB268:
.LBB267:
	.loc 3 300 0
	xorl	%eax, %eax
	call	syscall
.LBE267:
.LBE268:
.LBE269:
.LBE270:
.LBE271:
.LBE273:
	.loc 1 546 0
	addq	$32, %rsp
	popq	%rbx
	popq	%rbp
	popq	%r12
.LVL97:
	ret
	.cfi_endproc
.LFE178:
	.size	InitializeMatMult, .-InitializeMatMult
	.p2align 4,,15
.globl InitializeCnt
	.type	InitializeCnt, @function
InitializeCnt:
.LFB172:
	.loc 1 311 0
	.cfi_startproc
.LVL98:
	pushq	%r12
.LCFI28:
	.cfi_def_cfa_offset 16
	xorl	%r12d, %r12d
	.cfi_offset 12, -16
.LVL99:
	pushq	%rbp
.LCFI29:
	.cfi_def_cfa_offset 24
	movq	%rdi, %rbp
	.cfi_offset 6, -24
	pushq	%rbx
.LCFI30:
	.cfi_def_cfa_offset 32
	subq	$32, %rsp
.LCFI31:
	.cfi_def_cfa_offset 64
	.p2align 4,,10
	.p2align 3
.L86:
	.loc 1 314 0
	xorl	%ebx, %ebx
	.cfi_offset 3, -32
	.p2align 4,,10
	.p2align 3
.L87:
	.loc 1 316 0
	call	RandomIntegerCnt
.LVL100:
	movl	%eax, (%rbp,%rbx)
	addq	$4, %rbx
	.loc 1 315 0
	cmpq	$28000, %rbx
	jne	.L87
	.loc 1 314 0
	addl	$1, %r12d
.LVL101:
	addq	$28000, %rbp
	cmpl	$7000, %r12d
	jne	.L86
	.loc 1 318 0
	movq	RWCEC_Cnt(%rip), %rax
.LBB280:
.LBB282:
	.loc 2 1510 0
	movq	Task_Cnt(%rip), %rdx
.LBB284:
.LBB286:
.LBB288:
.LBB290:
	.loc 3 300 0
	leaq	16(%rsp), %rcx
	movl	$956432, %esi
	movl	$1879048192, %edi
.LBE290:
.LBE288:
.LBE286:
.LBE284:
.LBE282:
.LBE280:
	.loc 1 318 0
	subq	$588056000, %rax
.LBB296:
.LBB281:
	.loc 2 1510 0
	movq	%rdx, (%rsp)
.LBB283:
.LBB285:
.LBB287:
.LBB289:
	.loc 3 300 0
	movq	%rsp, %rdx
.LBE289:
.LBE287:
.LBE285:
.LBE283:
	.loc 2 1510 0
	movq	%rax, 8(%rsp)
.LBE281:
.LBE296:
	.loc 1 318 0
	movq	%rax, RWCEC_Cnt(%rip)
.LBB297:
.LBB295:
.LBB294:
.LBB293:
.LBB292:
.LBB291:
	.loc 3 300 0
	xorl	%eax, %eax
	call	syscall
.LBE291:
.LBE292:
.LBE293:
.LBE294:
.LBE295:
.LBE297:
	.loc 1 324 0
	addq	$32, %rsp
	xorl	%eax, %eax
	popq	%rbx
	popq	%rbp
	popq	%r12
.LVL102:
	ret
	.cfi_endproc
.LFE172:
	.size	InitializeCnt, .-InitializeCnt
	.p2align 4,,15
.globl TestCnt
	.type	TestCnt, @function
TestCnt:
.LFB174:
	.loc 1 377 0
	.cfi_startproc
.LVL103:
	pushq	%rbx
.LCFI32:
	.cfi_def_cfa_offset 16
	.loc 1 377 0
	movq	%rdi, %rbx
	.cfi_offset 3, -16
	.loc 1 378 0
	call	InitializeCnt
.LVL104:
	.loc 1 379 0
	movq	%rbx, %rdi
	call	SumCnt
	.loc 1 382 0
	xorl	%eax, %eax
	popq	%rbx
.LVL105:
	ret
	.cfi_endproc
.LFE174:
	.size	TestCnt, .-TestCnt
	.p2align 4,,15
.globl getTempoProcessamento
	.type	getTempoProcessamento, @function
getTempoProcessamento:
.LFB166:
	.loc 1 165 0
	.cfi_startproc
.LVL106:
	pushq	%rbp
.LCFI33:
	.cfi_def_cfa_offset 16
.LBB322:
.LBB324:
.LBB326:
.LBB328:
.LBB330:
.LBB332:
	.loc 3 300 0
	movl	$1879048192, %edi
.LVL107:
	xorl	%eax, %eax
.LBE332:
.LBE330:
.LBE328:
.LBE326:
.LBE324:
.LBE322:
	.loc 1 165 0
	pushq	%rbx
.LCFI34:
	.cfi_def_cfa_offset 24
	movq	%rsi, %rbx
	.cfi_offset 3, -24
	.cfi_offset 6, -16
.LBB343:
.LBB341:
.LBB339:
.LBB337:
.LBB335:
.LBB333:
	.loc 3 300 0
	movl	$38920, %esi
.LVL108:
.LBE333:
.LBE335:
.LBE337:
.LBE339:
.LBE341:
.LBE343:
	.loc 1 165 0
	subq	$136, %rsp
.LCFI35:
	.cfi_def_cfa_offset 160
.LBB344:
.LBB323:
.LBB325:
.LBB327:
.LBB329:
.LBB331:
	.loc 3 300 0
	leaq	64(%rsp), %rcx
	leaq	80(%rsp), %rdx
.LVL109:
	call	syscall
.LBE331:
.LBE329:
.LBE327:
.LBE325:
.LBE323:
.LBE344:
.LBB345:
.LBB346:
.LBB347:
.LBB348:
.LBB349:
.LBB350:
	leaq	48(%rsp), %rcx
	leaq	112(%rsp), %rdx
	movl	$1001480, %esi
	movl	$1879048192, %edi
	xorl	%eax, %eax
.LBE350:
.LBE349:
.LBE348:
.LBE347:
.LBE346:
.LBE345:
.LBB356:
.LBB342:
.LBB340:
.LBB338:
.LBB336:
.LBB334:
	.loc 3 304 0
	movq	64(%rsp), %rbp
.LBE334:
.LBE336:
.LBE338:
.LBE340:
.LBE342:
.LBE356:
.LBB357:
.LBB355:
	.loc 2 1733 0
	movq	%rbx, 112(%rsp)
.LBB354:
.LBB353:
.LBB352:
.LBB351:
	.loc 3 300 0
	call	syscall
.LBE351:
.LBE352:
.LBE353:
.LBE354:
.LBE355:
.LBE357:
.LBB358:
.LBB359:
.LBB360:
.LBB361:
.LBB362:
.LBB363:
	leaq	32(%rsp), %rcx
	leaq	96(%rsp), %rdx
	movl	$981000, %esi
	movl	$1879048192, %edi
	xorl	%eax, %eax
.LBE363:
.LBE362:
.LBE361:
.LBE360:
	.loc 2 1546 0
	movq	%rbx, 96(%rsp)
.LBB367:
.LBB366:
.LBB365:
.LBB364:
	.loc 3 300 0
	call	syscall
.LBE364:
.LBE365:
.LBE366:
.LBE367:
.LBE359:
.LBE358:
.LBB368:
.LBB369:
	.loc 2 1146 0
	subq	32(%rsp), %rbp
.LBB370:
.LBB371:
.LBB372:
.LBB373:
	.loc 3 300 0
	leaq	16(%rsp), %rdx
	movq	%rsp, %rcx
	movl	$43016, %esi
	movl	$1879048192, %edi
	xorl	%eax, %eax
.LBE373:
.LBE372:
.LBE371:
.LBE370:
	.loc 2 1146 0
	movq	%rbp, 16(%rsp)
.LBB377:
.LBB376:
.LBB375:
.LBB374:
	.loc 3 300 0
	call	syscall
.LBE374:
.LBE375:
.LBE376:
.LBE377:
.LBE369:
.LBE368:
	.loc 1 178 0
	movq	(%rsp), %rax
	addq	$136, %rsp
	popq	%rbx
.LVL110:
	popq	%rbp
	ret
	.cfi_endproc
.LFE166:
	.size	getTempoProcessamento, .-getTempoProcessamento
	.section	.rodata.str1.1
.LC16:
	.string	"TSKBSO"
	.section	.rodata.str1.8
	.align 8
.LC17:
	.string	"[ERRO] N\303\243o foi poss\303\255vel criar a tarefa Bsort (C-Benchmark)."
	.align 8
.LC19:
	.string	"%s[TASK %d] Criada com Sucesso  ================> %llu count => %.10f segundos\n"
	.align 8
.LC20:
	.string	"%s[TASK %d] ################### NOVA EXECUCAO (%lu) ################### \n"
	.align 8
.LC21:
	.string	"%s[TASK %d] ##### Tempo Processamento: %.10f \n"
	.align 8
.LC23:
	.string	"%s[TASK %d] ##### DEADLINE VIOLADO!!!!!!!!!!!!! Periodo(%lu) Deadlines_Violados(%lu) \n"
	.align 8
.LC24:
	.string	"%s[TASK %d] ##### FIM EXECUCAO -> Total Periodos Executados: %lu -> Total Deadlines Violados: %lu\n"
	.text
	.p2align 4,,15
.globl init_task_bsort
	.type	init_task_bsort, @function
init_task_bsort:
.LFB185:
	.loc 1 805 0
	.cfi_startproc
.LVL111:
	pushq	%r15
.LCFI36:
	.cfi_def_cfa_offset 16
	.loc 1 812 0
	movl	$.LC16, %esi
	xorl	%edx, %edx
.LVL112:
	xorl	%ecx, %ecx
.LVL113:
	.loc 1 805 0
	pushq	%r14
.LCFI37:
	.cfi_def_cfa_offset 24
	pushq	%r13
.LCFI38:
	.cfi_def_cfa_offset 32
	pushq	%r12
.LCFI39:
	.cfi_def_cfa_offset 40
	pushq	%rbp
.LCFI40:
	.cfi_def_cfa_offset 48
	pushq	%rbx
.LCFI41:
	.cfi_def_cfa_offset 56
	subq	$392, %rsp
.LCFI42:
	.cfi_def_cfa_offset 448
	.loc 1 812 0
	movl	idTaskBsort(%rip), %ebx
	.cfi_offset 3, -56
	.cfi_offset 6, -48
	.cfi_offset 12, -40
	.cfi_offset 13, -32
	.cfi_offset 14, -24
	.cfi_offset 15, -16
	addl	$1, %ebx
.LVL114:
.L102:
.LBB434:
.LBB436:
	.file 4 "/usr/realtime/include/rtai_nam2num.h"
	.loc 4 69 0
	movsbl	(%rsi),%eax
.LVL115:
	testl	%eax, %eax
	je	.L96
	.loc 4 71 0
	leal	-97(%rax), %edi
.LVL116:
	cmpl	$25, %edi
	ja	.L97
	subl	$86, %eax
.LVL117:
	movslq	%eax,%rdi
.LVL118:
.L98:
	.loc 4 80 0
	leaq	(%rdx,%rdx,4), %rax
.LVL119:
	.loc 4 68 0
	addl	$1, %ecx
.LVL120:
	addq	$1, %rsi
	.loc 4 80 0
	salq	$3, %rax
	subq	%rdx, %rax
	.loc 4 68 0
	cmpl	$6, %ecx
	.loc 4 80 0
	leaq	(%rdi,%rax), %rdx
	.loc 4 68 0
	jne	.L102
.LVL121:
.L103:
.LBE436:
.LBE434:
.LBB438:
.LBB439:
.LBB440:
.LBB441:
	.loc 2 659 0
	movq	%rdx, %rax
	addq	$2, %rax
	jne	.L104
.LBB442:
.LBB443:
	.loc 2 653 0
	leaq	320(%rsp), %rdx
.LVL122:
	movl	$1001, %esi
	movl	$8, %edi
.LVL123:
	.loc 2 652 0
	movq	$0, 320(%rsp)
	.loc 2 653 0
	call	T.235
.LVL124:
.L104:
.LBE443:
.LBE442:
	.loc 2 663 0
	movl	$1, %edi
.LVL125:
	.loc 2 659 0
	movslq	%ebx,%rbp
	movq	%rax, 32(%rsp)
	movq	%rbp, 40(%rsp)
	movq	$0, 48(%rsp)
	movq	$0, 56(%rsp)
	movq	$1, 64(%rsp)
	.loc 2 663 0
	call	sched_get_priority_max
.LVL126:
	subl	%ebx, %eax
	.loc 2 664 0
	movl	$1, %edx
	.loc 2 666 0
	movl	$1, %esi
	.loc 2 664 0
	testl	%eax, %eax
	cmovg	%eax, %edx
	.loc 2 666 0
	xorl	%edi, %edi
	.loc 2 664 0
	movl	%edx, 368(%rsp)
	.loc 2 666 0
	leaq	368(%rsp), %rdx
	call	sched_setscheduler
	testl	%eax, %eax
	js	.L106
	.loc 2 669 0
	movl	$3, %edi
	call	iopl
	.loc 2 670 0
	movl	$3, %edi
	call	mlockall
.LBB444:
.LBB445:
.LBB446:
.LBB447:
	.loc 3 300 0
	leaq	304(%rsp), %rcx
	leaq	32(%rsp), %rdx
	xorl	%eax, %eax
	movl	$4106280, %esi
	movl	$1879048192, %edi
	call	syscall
	.loc 3 304 0
	movq	304(%rsp), %rax
.LBE447:
.LBE446:
.LBE445:
.LBE444:
.LBE441:
.LBE440:
.LBE439:
.LBE438:
	.loc 1 814 0
	testq	%rax, %rax
	movq	%rax, Task_Bsort(%rip)
	je	.L114
	.loc 1 821 0
	movq	tick_period(%rip), %r10
.LBB448:
.LBB450:
.LBB452:
.LBB454:
.LBB456:
.LBB458:
	.loc 3 300 0
	leaq	224(%rsp), %rbx
.LVL127:
	leaq	288(%rsp), %rcx
	movl	$43016, %esi
	movl	$1879048192, %edi
.LBE458:
.LBE456:
.LBE454:
.LBE452:
.LBE450:
.LBE448:
	.loc 1 820 0
	movq	start_timeline(%rip), %r12
.LVL128:
.LBB464:
.LBB449:
.LBB451:
.LBB453:
.LBB455:
.LBB457:
	.loc 3 300 0
	movq	%rbx, %rdx
.LBE457:
.LBE455:
.LBE453:
.LBE451:
.LBE449:
.LBE464:
	.loc 1 821 0
	imulq	$180, %r10, %rax
	movq	%rax, Tperiodo_Bsort(%rip)
.LBB465:
.LBB463:
	.loc 2 1146 0
	movq	%rax, 224(%rsp)
.LBB462:
.LBB461:
.LBB460:
.LBB459:
	.loc 3 300 0
	xorl	%eax, %eax
	call	syscall
.LBE459:
.LBE460:
.LBE461:
.LBE462:
.LBE463:
.LBE465:
	.loc 1 823 0
	cvtsi2sdq	288(%rsp), %xmm0
	divsd	.LC18(%rip), %xmm0
.LBB466:
.LBB467:
.LBB468:
.LBB469:
.LBB470:
.LBB471:
	.loc 3 300 0
	leaq	272(%rsp), %rcx
	leaq	352(%rsp), %rdx
	movl	$4143112, %esi
	movl	$1879048192, %edi
	xorl	%eax, %eax
.LBE471:
.LBE470:
.LBE469:
.LBE468:
.LBE467:
.LBE466:
	.loc 1 823 0
	movsd	%xmm0, 24(%rsp)
.LBB477:
.LBB476:
.LBB475:
.LBB474:
.LBB473:
.LBB472:
	.loc 3 300 0
	call	syscall
.LBE472:
.LBE473:
.LBE474:
.LBE475:
.LBE476:
.LBE477:
.LBB478:
.LBB479:
	.loc 2 1052 0
	movq	Task_Bsort(%rip), %rax
.LBB480:
.LBB481:
.LBB482:
.LBB483:
	.loc 3 300 0
	leaq	256(%rsp), %rcx
	leaq	128(%rsp), %rdx
	movl	$14360, %esi
	movl	$1879048192, %edi
.LBE483:
.LBE482:
.LBE481:
.LBE480:
	.loc 2 1052 0
	movq	%r12, 136(%rsp)
	movq	%rax, 128(%rsp)
	movq	Tperiodo_Bsort(%rip), %rax
	movq	%rax, 144(%rsp)
.LBB487:
.LBB486:
.LBB485:
.LBB484:
	.loc 3 300 0
	xorl	%eax, %eax
	call	syscall
.LBE484:
.LBE485:
.LBE486:
.LBE487:
.LBE479:
.LBE478:
.LBB488:
.LBB489:
	.loc 2 922 0
	movq	Task_Bsort(%rip), %rax
.LBB490:
.LBB491:
.LBB492:
.LBB493:
	.loc 3 300 0
	leaq	240(%rsp), %rcx
	leaq	160(%rsp), %rdx
	movl	$145424, %esi
	movl	$1879048192, %edi
.LBE493:
.LBE492:
.LBE491:
.LBE490:
	.loc 2 922 0
	movq	%rbp, 168(%rsp)
	movq	%rax, 160(%rsp)
.LBB497:
.LBB496:
.LBB495:
.LBB494:
	.loc 3 300 0
	xorl	%eax, %eax
	call	syscall
.LBE494:
.LBE495:
.LBE496:
.LBE497:
.LBE489:
.LBE488:
	.loc 1 829 0
	movl	idTaskBsort(%rip), %edx
	movq	Tperiodo_Bsort(%rip), %rcx
	movl	$.LC19, %edi
	movsd	24(%rsp), %xmm0
	movslq	%edx,%rax
	leaq	arrayTextoCorIdTask(,%rax,8), %rsi
	movl	$1, %eax
	call	printf
	.loc 1 834 0
	movl	flagFimExecucao(%rip), %r9d
	testl	%r9d, %r9d
	jne	.L120
	movq	qtdPeriodosBsort(%rip), %rcx
	leaq	208(%rsp), %r12
.LVL129:
	leaq	192(%rsp), %rbp
	leaq	80(%rsp), %r13
	leaq	176(%rsp), %r14
	leaq	336(%rsp), %r15
	.p2align 4,,10
	.p2align 3
.L113:
	.loc 1 838 0
	movl	idTaskBsort(%rip), %edx
	movl	$.LC20, %edi
	movslq	%edx,%rax
	leaq	arrayTextoCorIdTask(,%rax,8), %rsi
	xorl	%eax, %eax
	call	printf
.LBB498:
.LBB500:
	.loc 2 1146 0
	movq	Tperiodo_Bsort(%rip), %rax
.LBE500:
.LBE498:
	.loc 1 842 0
	movl	$3000210009, %edi
	.loc 1 841 0
	movl	$3000210009, %r8d
	.loc 1 842 0
	movq	%rdi, RWCEC_Bsort(%rip)
.LBB515:
.LBB513:
.LBB502:
.LBB504:
.LBB506:
.LBB508:
	.loc 3 300 0
	movq	%r12, %rcx
	movq	%rbx, %rdx
	movl	$43016, %esi
	movl	$1879048192, %edi
.LBE508:
.LBE506:
.LBE504:
.LBE502:
.LBE513:
.LBE515:
	.loc 1 841 0
	movq	%r8, WCEC_Bsort(%rip)
.LBB516:
.LBB499:
	.loc 2 1146 0
	movq	%rax, 224(%rsp)
.LBB501:
.LBB503:
.LBB505:
.LBB507:
	.loc 3 300 0
	xorl	%eax, %eax
.LBE507:
.LBE505:
.LBE503:
.LBE501:
.LBE499:
.LBE516:
	.loc 1 843 0
	movq	$0, SEC_Bsort(%rip)
.LBB517:
.LBB514:
.LBB512:
.LBB511:
.LBB510:
.LBB509:
	.loc 3 300 0
	call	syscall
.LBE509:
.LBE510:
.LBE511:
.LBE512:
.LBE514:
.LBE517:
	.loc 1 851 0
	cvtsi2sdq	208(%rsp), %xmm1
	divsd	.LC18(%rip), %xmm1
	movq	WCEC_Bsort(%rip), %rdx
.LBB518:
.LBB520:
	.loc 2 1492 0
	mov	cpuFrequencyMin_Bsort(%rip), %esi
	movq	Task_Bsort(%rip), %rdi
.LBE520:
.LBE518:
	.loc 1 851 0
	cvtsi2sdq	%rdx, %xmm0
.LBB539:
.LBB537:
	.loc 2 1492 0
	movq	%rdx, 88(%rsp)
	movq	%rdi, 80(%rsp)
.LBB521:
.LBB523:
.LBB525:
.LBB527:
	.loc 3 300 0
	movq	%r13, %rdx
	movl	$1879048192, %edi
.LBE527:
.LBE525:
.LBE523:
.LBE521:
	.loc 2 1492 0
	movq	%rsi, 96(%rsp)
.LBB534:
.LBB532:
.LBB530:
.LBB528:
	.loc 3 300 0
	movl	$944168, %esi
.LBE528:
.LBE530:
.LBE532:
.LBE534:
.LBE537:
.LBE539:
	.loc 1 851 0
	divsd	%xmm1, %xmm0
	divsd	.LC22(%rip), %xmm0
	cvttsd2si	%xmm0, %eax
	movl	%eax, %ecx
	sarl	$31, %ecx
	xorl	%ecx, %eax
	subl	%ecx, %eax
.LBB540:
.LBB519:
	.loc 2 1492 0
	mov	cpuVoltageInicial_Bsort(%rip), %ecx
.LBE519:
.LBE540:
	.loc 1 851 0
	movl	%eax, cpuFrequencyInicial_Bsort(%rip)
.LBB541:
.LBB538:
	.loc 2 1492 0
	mov	%eax, %eax
	movq	%rax, 104(%rsp)
.LBB535:
.LBB522:
.LBB524:
.LBB526:
	.loc 3 300 0
	xorl	%eax, %eax
.LBE526:
.LBE524:
.LBE522:
.LBE535:
	.loc 2 1492 0
	movq	%rcx, 112(%rsp)
.LBB536:
.LBB533:
.LBB531:
.LBB529:
	.loc 3 300 0
	movq	%rbp, %rcx
	call	syscall
.LBE529:
.LBE531:
.LBE533:
.LBE536:
.LBE538:
.LBE541:
.LBB542:
.LBB543:
	.loc 1 746 0
	movl	$-1, factor(%rip)
	movl	$ArrayBsort, %edx
	movl	$-2, %eax
	.p2align 4,,10
	.p2align 3
.L110:
	.loc 1 750 0
	movl	%eax, 4(%rdx)
	subl	$2, %eax
	addq	$4, %rdx
	.loc 1 749 0
	cmpl	$-20002, %eax
	jne	.L110
.LBE543:
.LBE542:
	.loc 1 860 0
	movl	$ArrayBsort, %edi
.LBB545:
.LBB544:
	.loc 1 752 0
	subq	$260034, RWCEC_Bsort(%rip)
.LBE544:
.LBE545:
	.loc 1 860 0
	call	BubbleSort
	.loc 1 864 0
	movq	qtdPeriodosBsort(%rip), %rdx
	movq	Task_Bsort(%rip), %rsi
	movl	idTaskBsort(%rip), %edi
	call	getTempoProcessamento
	.loc 1 865 0
	cvtsi2sdq	%rax, %xmm1
.LVL130:
	.loc 1 867 0
	movl	idTaskBsort(%rip), %edx
	movl	$.LC21, %edi
	movslq	%edx,%rax
.LVL131:
	leaq	arrayTextoCorIdTask(,%rax,8), %rsi
	movl	$1, %eax
	.loc 1 865 0
	divsd	.LC18(%rip), %xmm1
	.loc 1 867 0
	movapd	%xmm1, %xmm0
	movsd	%xmm1, (%rsp)
.LVL132:
	call	printf
	.loc 1 870 0
	movsd	(%rsp), %xmm1
	ucomisd	24(%rsp), %xmm1
.LVL133:
	ja	.L121
.L111:
.LBB546:
.LBB547:
.LBB548:
.LBB549:
.LBB550:
.LBB551:
	.loc 3 300 0
	movq	%r14, %rcx
	movl	$18440, %esi
	xorl	%eax, %eax
	movq	%r15, %rdx
	movl	$1879048192, %edi
	call	syscall
.LVL134:
.LBE551:
.LBE550:
.LBE549:
.LBE548:
.LBE547:
.LBE546:
	.loc 1 879 0
	movq	qtdPeriodosBsort(%rip), %rcx
	.loc 1 834 0
	movl	flagFimExecucao(%rip), %esi
	.loc 1 879 0
	addq	$1, %rcx
	.loc 1 834 0
	testl	%esi, %esi
	.loc 1 879 0
	movq	%rcx, qtdPeriodosBsort(%rip)
	.loc 1 834 0
	je	.L113
.LVL135:
.L109:
	.loc 1 882 0
	movl	idTaskBsort(%rip), %edx
	movq	qtdDeadlinesVioladosBsort(%rip), %r8
	movl	$.LC24, %edi
	movslq	%edx,%rax
	leaq	arrayTextoCorIdTask(,%rax,8), %rsi
	xorl	%eax, %eax
	call	printf
	.loc 1 885 0
	addq	$392, %rsp
	xorl	%eax, %eax
	popq	%rbx
	popq	%rbp
	popq	%r12
.LVL136:
	popq	%r13
	popq	%r14
	popq	%r15
	ret
.LVL137:
.L121:
	.loc 1 874 0
	movl	idTaskBsort(%rip), %edx
	.loc 1 872 0
	movq	qtdDeadlinesVioladosBsort(%rip), %r8
	.loc 1 874 0
	movl	$.LC23, %edi
	movq	qtdPeriodosBsort(%rip), %rcx
	movslq	%edx,%rax
	.loc 1 872 0
	addq	$1, %r8
	.loc 1 874 0
	leaq	arrayTextoCorIdTask(,%rax,8), %rsi
	xorl	%eax, %eax
	.loc 1 872 0
	movq	%r8, qtdDeadlinesVioladosBsort(%rip)
	.loc 1 874 0
	call	printf
.LVL138:
	jmp	.L111
.LVL139:
.L97:
.LBB552:
.LBB435:
	.loc 4 73 0
	leal	-65(%rax), %edi
	cmpl	$25, %edi
	ja	.L99
	subl	$54, %eax
.LVL140:
	movslq	%eax,%rdi
	.p2align 4,,3
	jmp	.L98
.LVL141:
.L99:
	.loc 4 75 0
	leal	-48(%rax), %edi
	cmpl	$9, %edi
	ja	.L100
	subl	$47, %eax
.LVL142:
	movslq	%eax,%rdi
	jmp	.L98
.LVL143:
.L100:
	.loc 4 78 0
	xorl	%edi, %edi
	cmpl	$95, %eax
	setne	%dil
	addq	$37, %rdi
	jmp	.L98
.LVL144:
.L106:
.LBE435:
.LBE552:
	.loc 1 814 0
	movq	$0, Task_Bsort(%rip)
.L114:
	.loc 1 816 0
	movl	$.LC17, %edi
	call	puts
	.loc 1 817 0
	movl	$1, %edi
	call	exit
.LVL145:
.L96:
.LBB553:
.LBB437:
	.loc 4 82 0
	testl	%ecx, %ecx
	movl	$4294967295, %eax
.LVL146:
	je	.L104
	.p2align 4,,2
	jmp	.L103
.LVL147:
.L120:
.LBE437:
.LBE553:
	.loc 1 834 0
	movq	qtdPeriodosBsort(%rip), %rcx
	.p2align 4,,2
	jmp	.L109
	.cfi_endproc
.LFE185:
	.size	init_task_bsort, .-init_task_bsort
	.p2align 4,,15
.globl getTempoRestanteProcessamento
	.type	getTempoRestanteProcessamento, @function
getTempoRestanteProcessamento:
.LFB167:
	.loc 1 181 0
	.cfi_startproc
.LVL148:
	pushq	%r12
.LCFI43:
	.cfi_def_cfa_offset 16
.LBB578:
.LBB580:
.LBB582:
.LBB584:
.LBB586:
.LBB588:
	.loc 3 300 0
	movl	$1879048192, %edi
.LVL149:
	xorl	%eax, %eax
.LBE588:
.LBE586:
.LBE584:
.LBE582:
.LBE580:
.LBE578:
	.loc 1 181 0
	pushq	%rbp
.LCFI44:
	.cfi_def_cfa_offset 24
	pushq	%rbx
.LCFI45:
	.cfi_def_cfa_offset 32
	movq	%rsi, %rbx
	.cfi_offset 3, -32
	.cfi_offset 6, -24
	.cfi_offset 12, -16
.LBB599:
.LBB597:
.LBB595:
.LBB593:
.LBB591:
.LBB589:
	.loc 3 300 0
	movl	$38920, %esi
.LVL150:
.LBE589:
.LBE591:
.LBE593:
.LBE595:
.LBE597:
.LBE599:
	.loc 1 181 0
	addq	$-128, %rsp
.LCFI46:
	.cfi_def_cfa_offset 160
.LBB600:
.LBB579:
.LBB581:
.LBB583:
.LBB585:
.LBB587:
	.loc 3 300 0
	leaq	64(%rsp), %rcx
	leaq	80(%rsp), %rdx
	call	syscall
.LBE587:
.LBE585:
.LBE583:
.LBE581:
.LBE579:
.LBE600:
.LBB601:
.LBB603:
.LBB605:
.LBB607:
.LBB609:
.LBB611:
	leaq	48(%rsp), %rcx
	leaq	112(%rsp), %rdx
	movl	$1001480, %esi
	movl	$1879048192, %edi
	xorl	%eax, %eax
.LBE611:
.LBE609:
.LBE607:
.LBE605:
.LBE603:
.LBE601:
.LBB617:
.LBB598:
.LBB596:
.LBB594:
.LBB592:
.LBB590:
	.loc 3 304 0
	movq	64(%rsp), %rbp
.LBE590:
.LBE592:
.LBE594:
.LBE596:
.LBE598:
.LBE617:
.LBB618:
.LBB602:
	.loc 2 1733 0
	movq	%rbx, 112(%rsp)
.LBB604:
.LBB606:
.LBB608:
.LBB610:
	.loc 3 300 0
	call	syscall
.LBE610:
.LBE608:
.LBE606:
.LBE604:
.LBE602:
.LBE618:
.LBB619:
.LBB620:
.LBB621:
.LBB622:
.LBB623:
.LBB624:
	leaq	32(%rsp), %rcx
	leaq	96(%rsp), %rdx
	movl	$981000, %esi
	movl	$1879048192, %edi
	xorl	%eax, %eax
.LBE624:
.LBE623:
.LBE622:
.LBE621:
.LBE620:
.LBE619:
.LBB630:
.LBB616:
.LBB615:
.LBB614:
.LBB613:
.LBB612:
	.loc 3 304 0
	movq	48(%rsp), %r12
.LBE612:
.LBE613:
.LBE614:
.LBE615:
.LBE616:
.LBE630:
.LBB631:
.LBB629:
	.loc 2 1546 0
	movq	%rbx, 96(%rsp)
.LBB628:
.LBB627:
.LBB626:
.LBB625:
	.loc 3 300 0
	call	syscall
.LBE625:
.LBE626:
.LBE627:
.LBE628:
.LBE629:
.LBE631:
.LBB632:
.LBB633:
	.loc 2 1146 0
	addq	32(%rsp), %r12
.LBB634:
.LBB635:
.LBB636:
.LBB637:
	.loc 3 300 0
	leaq	16(%rsp), %rdx
	movq	%rsp, %rcx
	xorl	%eax, %eax
	movl	$43016, %esi
	movl	$1879048192, %edi
.LBE637:
.LBE636:
.LBE635:
.LBE634:
	.loc 2 1146 0
	subq	%rbp, %r12
	movq	%r12, 16(%rsp)
.LBB641:
.LBB640:
.LBB639:
.LBB638:
	.loc 3 300 0
	call	syscall
	.loc 3 304 0
	movq	(%rsp), %rax
.LVL151:
.LBE638:
.LBE639:
.LBE640:
.LBE641:
.LBE633:
.LBE632:
	.loc 1 192 0
	movl	$1, %edx
	testq	%rax, %rax
	cmovle	%rdx, %rax
	.loc 1 196 0
	subq	$-128, %rsp
.LVL152:
	popq	%rbx
.LVL153:
	popq	%rbp
	popq	%r12
	ret
	.cfi_endproc
.LFE167:
	.size	getTempoRestanteProcessamento, .-getTempoRestanteProcessamento
	.section	.rodata.str1.8
	.align 8
.LC27:
	.string	"%s[TASK %d] - cpu_frequency_target = RWCEC(%ld) / TRP(%f) ===> TIMER(%llu)\n"
	.text
	.p2align 4,,15
.globl reajustarCpuFreq
	.type	reajustarCpuFreq, @function
reajustarCpuFreq:
.LFB168:
	.loc 1 199 0
	.cfi_startproc
.LVL154:
	pushq	%r12
.LCFI47:
	.cfi_def_cfa_offset 16
	movq	%rdx, %r12
	.cfi_offset 12, -16
	pushq	%rbp
.LCFI48:
	.cfi_def_cfa_offset 24
	movq	%rsi, %rbp
	.cfi_offset 6, -24
	pushq	%rbx
.LCFI49:
	.cfi_def_cfa_offset 32
	movl	%edi, %ebx
	.cfi_offset 3, -32
	subq	$112, %rsp
.LCFI50:
	.cfi_def_cfa_offset 144
	.loc 1 207 0
	call	getTempoRestanteProcessamento
.LVL155:
	.loc 1 208 0
	cvtsi2sdq	%rax, %xmm1
.LVL156:
.LBB660:
.LBB661:
.LBB662:
.LBB663:
.LBB664:
.LBB665:
	.loc 3 300 0
	leaq	80(%rsp), %rcx
	leaq	96(%rsp), %rdx
	movl	$38920, %esi
	movl	$1879048192, %edi
	xorl	%eax, %eax
.LVL157:
.LBE665:
.LBE664:
.LBE663:
.LBE662:
.LBE661:
.LBE660:
	.loc 1 208 0
	divsd	.LC18(%rip), %xmm1
	.loc 1 209 0
	movapd	%xmm1, %xmm0
	movapd	%xmm1, %xmm2
	movsd	.LC26(%rip), %xmm1
.LVL158:
	cmpnlesd	.LC25(%rip), %xmm0
	andpd	%xmm0, %xmm2
	andnpd	%xmm1, %xmm0
	movapd	%xmm0, %xmm1
.LVL159:
	orpd	%xmm2, %xmm1
.LBB671:
.LBB670:
.LBB669:
.LBB668:
.LBB667:
.LBB666:
	.loc 3 300 0
	movsd	%xmm1, (%rsp)
.LVL160:
	call	syscall
	.loc 3 304 0
	movq	80(%rsp), %rax
.LBE666:
.LBE667:
.LBE668:
.LBE669:
.LBE670:
.LBE671:
.LBB672:
.LBB673:
.LBB674:
.LBB675:
.LBB676:
.LBB677:
	.loc 3 300 0
	leaq	48(%rsp), %rcx
	leaq	64(%rsp), %rdx
	movl	$43016, %esi
	movl	$1879048192, %edi
.LBE677:
.LBE676:
.LBE675:
.LBE674:
	.loc 2 1146 0
	movq	%rax, 64(%rsp)
.LBB681:
.LBB680:
.LBB679:
.LBB678:
	.loc 3 300 0
	xorl	%eax, %eax
	call	syscall
.LBE678:
.LBE679:
.LBE680:
.LBE681:
.LBE673:
.LBE672:
	.loc 1 214 0
	movsd	(%rsp), %xmm1
	movslq	%ebx,%rax
.LVL161:
	movq	48(%rsp), %r8
	leaq	arrayTextoCorIdTask(,%rax,8), %rsi
	movq	%r12, %rcx
	movapd	%xmm1, %xmm0
.LVL162:
	movl	%ebx, %edx
	movl	$.LC27, %edi
	movl	$1, %eax
.LVL163:
	call	printf
.LVL164:
	.loc 1 217 0
	cvtsi2sdq	%r12, %xmm0
.LVL165:
.LBB682:
.LBB684:
.LBB686:
.LBB688:
.LBB690:
.LBB692:
	.loc 3 300 0
	leaq	32(%rsp), %rcx
.LBE692:
.LBE690:
.LBE688:
.LBE686:
.LBE684:
.LBE682:
	.loc 1 217 0
	movsd	(%rsp), %xmm1
.LBB702:
.LBB683:
.LBB685:
.LBB697:
.LBB695:
.LBB693:
	.loc 3 300 0
	leaq	16(%rsp), %rdx
	movl	$964624, %esi
	movl	$1879048192, %edi
.LBE693:
.LBE695:
.LBE697:
.LBE685:
	.loc 2 1522 0
	movq	%rbp, 16(%rsp)
.LBE683:
.LBE702:
	.loc 1 217 0
	divsd	%xmm1, %xmm0
.LVL166:
	.loc 1 218 0
	divsd	.LC22(%rip), %xmm0
.LBB703:
.LBB701:
	.loc 2 1522 0
	cvttsd2si	%xmm0, %eax
.LBB699:
.LBB687:
.LBB689:
.LBB691:
	.loc 3 300 0
	movsd	%xmm0, (%rsp)
.LVL167:
.LBE691:
.LBE689:
.LBE687:
.LBE699:
	.loc 2 1522 0
	movl	%eax, 24(%rsp)
.LBB700:
.LBB698:
.LBB696:
.LBB694:
	.loc 3 300 0
	xorl	%eax, %eax
	call	syscall
.LVL168:
	cvttsd2siq	(%rsp), %rax
.LBE694:
.LBE696:
.LBE698:
.LBE700:
.LBE701:
.LBE703:
	.loc 1 222 0
	addq	$112, %rsp
	popq	%rbx
.LVL169:
	popq	%rbp
.LVL170:
	popq	%r12
.LVL171:
	ret
	.cfi_endproc
.LFE168:
	.size	reajustarCpuFreq, .-reajustarCpuFreq
	.section	.rodata.str1.8
	.align 8
.LC28:
	.string	"%s[TASK %d] Processando... %3d%% ==============> Freq: %8d Khz ==============> Curr Freq: %8d Khz ==============> Freq CALCULADA: %8d Khz\n"
	.text
	.p2align 4,,15
.globl MultiplyMatMult
	.type	MultiplyMatMult, @function
MultiplyMatMult:
.LFB179:
	.loc 1 550 0
	.cfi_startproc
.LVL172:
	pushq	%r15
.LCFI51:
	.cfi_def_cfa_offset 16
	orl	$-1, %ecx
.LVL173:
	pushq	%r14
.LCFI52:
	.cfi_def_cfa_offset 24
	pushq	%r13
.LCFI53:
	.cfi_def_cfa_offset 32
	movl	$593670, %r13d
	.cfi_offset 13, -32
	.cfi_offset 14, -24
	.cfi_offset 15, -16
	pushq	%r12
.LCFI54:
	.cfi_def_cfa_offset 40
	xorl	%r12d, %r12d
	.cfi_offset 12, -40
	pushq	%rbp
.LCFI55:
	.cfi_def_cfa_offset 48
	pushq	%rbx
.LCFI56:
	.cfi_def_cfa_offset 56
	movq	%rsi, %rbx
	.cfi_offset 3, -56
	.cfi_offset 6, -48
	subq	$184, %rsp
.LCFI57:
	.cfi_def_cfa_offset 240
.LBB734:
.LBB736:
.LBB739:
.LBB742:
.LBB745:
.LBB748:
	.loc 3 300 0
	leaq	160(%rsp), %r14
.LBE748:
.LBE745:
.LBE742:
.LBE739:
.LBE736:
.LBE734:
.LBB759:
.LBB761:
.LBB763:
.LBB765:
.LBB767:
.LBB769:
	leaq	80(%rsp), %r15
.LBE769:
.LBE767:
.LBE765:
.LBE763:
.LBE761:
.LBE759:
	.loc 1 550 0
	movq	%rdi, 32(%rsp)
	movq	%rdx, 40(%rsp)
.LVL174:
.L131:
	.loc 1 559 0
	movq	32(%rsp), %r8
	movq	40(%rsp), %rbp
	xorl	%r9d, %r9d
.LVL175:
	addq	%r12, %r8
	addq	%r12, %rbp
	.p2align 4,,10
	.p2align 3
.L133:
	.loc 1 571 0
	movslq	%r9d,%rax
.LVL176:
	movl	$0, (%rbp)
	xorl	%esi, %esi
	leaq	(%rbx,%rax,4), %rdi
.LVL177:
	xorl	%eax, %eax
.LVL178:
	.p2align 4,,10
	.p2align 3
.L132:
	.loc 1 575 0
	movl	(%rdi), %edx
.LVL179:
	addq	$3080, %rdi
	imull	(%r8,%rax), %edx
	addq	$4, %rax
	addl	%edx, %esi
	.loc 1 574 0
	cmpq	$3080, %rax
	.loc 1 575 0
	movl	%esi, (%rbp)
	.loc 1 574 0
	jne	.L132
	.loc 1 569 0
	addl	$1, %r9d
.LVL180:
	addq	$4, %rbp
	cmpl	$770, %r9d
	jne	.L133
	.loc 1 585 0
	movl	%r13d, %edx
	movl	$4565330, %edi
	movl	%r13d, %eax
	sarl	$31, %edx
	.loc 1 583 0
	movq	RWCEC_Matmult(%rip), %rsi
	.loc 1 585 0
	idivl	%edi
	.loc 1 586 0
	movl	$10, %edi
	.loc 1 583 0
	subq	$8923537, %rsi
	movq	%rsi, RWCEC_Matmult(%rip)
	.loc 1 586 0
	movl	%eax, %edx
	.loc 1 585 0
	movl	%eax, %ebp
	.loc 1 586 0
	sarl	$31, %edx
	idivl	%edi
	testl	%edx, %edx
	je	.L142
.L134:
	.loc 1 609 0
	addl	$592900, %r13d
	addq	$3080, %r12
	.loc 1 559 0
	cmpl	$457126670, %r13d
	jne	.L131
	.loc 1 614 0
	addq	$184, %rsp
	popq	%rbx
.LVL181:
	popq	%rbp
	popq	%r12
	popq	%r13
	popq	%r14
	popq	%r15
	ret
.LVL182:
.L142:
	.loc 1 586 0
	cmpl	%ecx, %ebp
	je	.L134
.LBB780:
.LBB781:
	.loc 2 1510 0
	movq	Task_Matmult(%rip), %rax
.LBB782:
.LBB784:
.LBB786:
.LBB788:
	.loc 3 300 0
	leaq	144(%rsp), %rcx
.LVL183:
	leaq	48(%rsp), %rdx
.LBE788:
.LBE786:
.LBE784:
.LBE782:
	.loc 2 1510 0
	movq	%rsi, 56(%rsp)
.LBB792:
.LBB783:
.LBB785:
.LBB787:
	.loc 3 300 0
	movl	$1879048192, %edi
	movl	$956432, %esi
.LBE787:
.LBE785:
.LBE783:
.LBE792:
	.loc 2 1510 0
	movq	%rax, 48(%rsp)
.LBB793:
.LBB791:
.LBB790:
.LBB789:
	.loc 3 300 0
	xorl	%eax, %eax
	call	syscall
.LVL184:
.LBE789:
.LBE790:
.LBE791:
.LBE793:
.LBE781:
.LBE780:
	.loc 1 593 0
	cmpl	$60, %ebp
	je	.L139
	cmpl	$30, %ebp
	jne	.L135
.L139:
	.loc 1 596 0
	movq	RWCEC_Matmult(%rip), %rdx
	movq	Task_Matmult(%rip), %rsi
	movl	idTaskMatmult(%rip), %edi
	call	reajustarCpuFreq
.LBB794:
.LBB757:
.LBB755:
.LBB741:
.LBB744:
.LBB747:
	.loc 3 300 0
	leaq	128(%rsp), %rcx
.LBE747:
.LBE744:
.LBE741:
.LBE755:
.LBE757:
.LBE794:
	.loc 1 596 0
	movl	%eax, %r9d
.LVL185:
.LBB795:
.LBB735:
.LBB738:
.LBB753:
.LBB751:
.LBB749:
	.loc 3 300 0
	movq	%r14, %rdx
	movl	$1005572, %esi
	movl	$1879048192, %edi
	xorl	%eax, %eax
	movl	%r9d, 16(%rsp)
.LVL186:
.LBE749:
.LBE751:
.LBE753:
.LBE738:
	.loc 2 1739 0
	movl	$0, 160(%rsp)
.LBB737:
.LBB740:
.LBB743:
.LBB746:
	.loc 3 300 0
	call	syscall
	.loc 3 304 0
	movq	128(%rsp), %rax
.LBE746:
.LBE743:
.LBE740:
.LBE737:
.LBE735:
.LBE795:
.LBB796:
.LBB778:
.LBB776:
.LBB774:
.LBB772:
.LBB770:
	.loc 3 300 0
	leaq	112(%rsp), %rcx
	movq	%r15, %rdx
	movl	$968712, %esi
	movl	$1879048192, %edi
.LBE770:
.LBE772:
.LBE774:
.LBE776:
.LBE778:
.LBE796:
.LBB797:
.LBB758:
.LBB756:
.LBB754:
.LBB752:
.LBB750:
	.loc 3 304 0
	movq	%rax, 24(%rsp)
.LBE750:
.LBE752:
.LBE754:
.LBE756:
.LBE758:
.LBE797:
.LBB798:
.LBB760:
	.loc 2 1528 0
	movq	Task_Matmult(%rip), %rax
	movq	%rax, 80(%rsp)
.LBB762:
.LBB764:
.LBB766:
.LBB768:
	.loc 3 300 0
	xorl	%eax, %eax
	call	syscall
.LBE768:
.LBE766:
.LBE764:
.LBE762:
.LBE760:
.LBE798:
	.loc 1 601 0
	movl	16(%rsp), %r9d
	movl	idTaskMatmult(%rip), %edx
	movl	%ebp, %ecx
.LBB799:
.LBB779:
.LBB777:
.LBB775:
.LBB773:
.LBB771:
	.loc 3 304 0
	movq	112(%rsp), %r8
.LBE771:
.LBE773:
.LBE775:
.LBE777:
.LBE779:
.LBE799:
	.loc 1 601 0
	movl	$.LC28, %edi
	movslq	%edx,%rax
	movl	%r9d, (%rsp)
.LVL187:
	movl	24(%rsp), %r9d
.LVL188:
	leaq	arrayTextoCorIdTask(,%rax,8), %rsi
	xorl	%eax, %eax
	.loc 1 600 0
	movl	%r8d, cpuFrequencyAtual_Matmult(%rip)
	.loc 1 601 0
	call	printf
	movl	%ebp, %ecx
.LVL189:
	jmp	.L134
.LVL190:
.L135:
.LBB800:
.LBB801:
.LBB803:
.LBB805:
.LBB807:
.LBB809:
	.loc 3 300 0
	leaq	96(%rsp), %rcx
	movq	%r14, %rdx
	movl	$1005572, %esi
	movl	$1879048192, %edi
	xorl	%eax, %eax
.LBE809:
.LBE807:
.LBE805:
.LBE803:
	.loc 2 1739 0
	movl	$0, 160(%rsp)
.LBB802:
.LBB804:
.LBB806:
.LBB808:
	.loc 3 300 0
	call	syscall
.LBE808:
.LBE806:
.LBE804:
.LBE802:
.LBE801:
.LBE800:
.LBB815:
.LBB817:
	.loc 2 1528 0
	movq	Task_Matmult(%rip), %rax
.LBE817:
.LBE815:
.LBB831:
.LBB814:
.LBB813:
.LBB812:
.LBB811:
.LBB810:
	.loc 3 304 0
	movq	96(%rsp), %r9
.LBE810:
.LBE811:
.LBE812:
.LBE813:
.LBE814:
.LBE831:
.LBB832:
.LBB816:
.LBB819:
.LBB821:
.LBB823:
.LBB825:
	.loc 3 300 0
	leaq	64(%rsp), %rcx
	movq	%r15, %rdx
	movl	$968712, %esi
	movl	$1879048192, %edi
.LBE825:
.LBE823:
.LBE821:
.LBE819:
	.loc 2 1528 0
	movq	%rax, 80(%rsp)
.LBB818:
.LBB820:
.LBB822:
.LBB824:
	.loc 3 300 0
	xorl	%eax, %eax
	movq	%r9, 16(%rsp)
	call	syscall
.LBE824:
.LBE822:
.LBE820:
.LBE818:
.LBE816:
.LBE832:
	.loc 1 609 0
	movl	idTaskMatmult(%rip), %edx
.LBB833:
.LBB830:
.LBB829:
.LBB828:
.LBB827:
.LBB826:
	.loc 3 304 0
	movq	64(%rsp), %r8
.LBE826:
.LBE827:
.LBE828:
.LBE829:
.LBE830:
.LBE833:
	.loc 1 609 0
	movl	%ebp, %ecx
	movq	16(%rsp), %r9
	movl	$.LC15, %edi
	movslq	%edx,%rax
	.loc 1 608 0
	movl	%r8d, cpuFrequencyAtual_Matmult(%rip)
	.loc 1 609 0
	leaq	arrayTextoCorIdTask(,%rax,8), %rsi
	xorl	%eax, %eax
	call	printf
	movl	%ebp, %ecx
.LVL191:
	jmp	.L134
	.cfi_endproc
.LFE179:
	.size	MultiplyMatMult, .-MultiplyMatMult
	.p2align 4,,15
.globl TestMatMult
	.type	TestMatMult, @function
TestMatMult:
.LFB180:
	.loc 1 621 0
	.cfi_startproc
.LVL192:
	movq	%rbx, -24(%rsp)
	movq	%rbp, -16(%rsp)
	movq	%rsi, %rbp
	.cfi_offset 6, -24
	.cfi_offset 3, -32
	movq	%r12, -8(%rsp)
	.loc 1 622 0
	movl	$1, %esi
.LVL193:
	.loc 1 621 0
	subq	$24, %rsp
.LCFI58:
	.cfi_def_cfa_offset 32
	.loc 1 621 0
	movq	%rdi, %rbx
	movq	%rdx, %r12
	.cfi_offset 12, -16
	.loc 1 622 0
	call	InitializeMatMult
.LVL194:
	.loc 1 623 0
	movq	%rbp, %rdi
	xorl	%esi, %esi
	call	InitializeMatMult
	.loc 1 625 0
	movq	%r12, %rdx
	movq	%rbp, %rsi
	movq	%rbx, %rdi
	.loc 1 626 0
	movq	8(%rsp), %rbp
.LVL195:
	movq	(%rsp), %rbx
.LVL196:
	movq	16(%rsp), %r12
.LVL197:
	addq	$24, %rsp
	.loc 1 625 0
	jmp	MultiplyMatMult
	.cfi_endproc
.LFE180:
	.size	TestMatMult, .-TestMatMult
	.p2align 4,,15
.globl delete_tasks
	.type	delete_tasks, @function
delete_tasks:
.LFB188:
	.loc 1 1076 0
	.cfi_startproc
	pushq	%rbp
.LCFI59:
	.cfi_def_cfa_offset 16
.LBB888:
.LBB890:
.LBB892:
.LBB894:
.LBB896:
.LBB898:
	.loc 3 300 0
	movl	$4130824, %esi
	movl	$1879048192, %edi
	xorl	%eax, %eax
.LBE898:
.LBE896:
.LBE894:
.LBE892:
.LBE890:
.LBE888:
	.loc 1 1076 0
	pushq	%rbx
.LCFI60:
	.cfi_def_cfa_offset 24
	subq	$184, %rsp
.LCFI61:
	.cfi_def_cfa_offset 208
.LBB904:
.LBB889:
.LBB891:
.LBB893:
.LBB895:
.LBB897:
	.loc 3 300 0
	leaq	32(%rsp), %rbx
	.cfi_offset 3, -24
	.cfi_offset 6, -16
	leaq	160(%rsp), %rcx
.LBE897:
.LBE895:
.LBE893:
.LBE891:
.LBE889:
.LBE904:
.LBB905:
.LBB906:
.LBB907:
.LBB908:
.LBB909:
.LBB910:
	leaq	48(%rsp), %rbp
.LBE910:
.LBE909:
.LBE908:
.LBE907:
.LBE906:
.LBE905:
.LBB928:
.LBB903:
.LBB902:
.LBB901:
.LBB900:
.LBB899:
	movq	%rbx, %rdx
	call	syscall
.LBE899:
.LBE900:
.LBE901:
.LBE902:
.LBE903:
.LBE928:
.LBB929:
.LBB927:
	.loc 2 946 0
	movq	Task_Cnt(%rip), %rax
.LBB914:
.LBB915:
.LBB916:
.LBB917:
.LBB918:
.LBB919:
	.loc 3 300 0
	leaq	144(%rsp), %rcx
	movq	%rbx, %rdx
	movl	$4130824, %esi
	movl	$1879048192, %edi
.LBE919:
.LBE918:
.LBE917:
.LBE916:
.LBE915:
.LBE914:
	.loc 2 946 0
	movq	%rax, 48(%rsp)
.LBB925:
.LBB924:
.LBB923:
.LBB922:
.LBB921:
.LBB920:
	.loc 3 300 0
	xorl	%eax, %eax
	call	syscall
.LBE920:
.LBE921:
.LBE922:
.LBE923:
.LBE924:
.LBE925:
.LBB926:
.LBB913:
.LBB912:
.LBB911:
	leaq	128(%rsp), %rcx
	movq	%rbp, %rdx
	movl	$4110344, %esi
	movl	$1879048192, %edi
	xorl	%eax, %eax
	call	syscall
.LBE911:
.LBE912:
.LBE913:
.LBE926:
.LBE927:
.LBE929:
.LBB930:
.LBB931:
	.loc 2 946 0
	movq	Task_Matmult(%rip), %rax
.LBB932:
.LBB933:
.LBB934:
.LBB935:
.LBB936:
.LBB937:
	.loc 3 300 0
	leaq	112(%rsp), %rcx
	movq	%rbx, %rdx
	movl	$4130824, %esi
	movl	$1879048192, %edi
.LBE937:
.LBE936:
.LBE935:
.LBE934:
.LBE933:
.LBE932:
	.loc 2 946 0
	movq	%rax, 48(%rsp)
.LBB943:
.LBB942:
.LBB941:
.LBB940:
.LBB939:
.LBB938:
	.loc 3 300 0
	xorl	%eax, %eax
	call	syscall
.LBE938:
.LBE939:
.LBE940:
.LBE941:
.LBE942:
.LBE943:
.LBB944:
.LBB945:
.LBB946:
.LBB947:
	leaq	96(%rsp), %rcx
	movq	%rbp, %rdx
	movl	$4110344, %esi
	movl	$1879048192, %edi
	xorl	%eax, %eax
	call	syscall
.LBE947:
.LBE946:
.LBE945:
.LBE944:
.LBE931:
.LBE930:
.LBB948:
.LBB949:
	.loc 2 946 0
	movq	Task_Bsort(%rip), %rax
.LBB950:
.LBB951:
.LBB952:
.LBB953:
.LBB954:
.LBB955:
	.loc 3 300 0
	leaq	80(%rsp), %rcx
	movq	%rbx, %rdx
	movl	$4130824, %esi
	movl	$1879048192, %edi
.LBE955:
.LBE954:
.LBE953:
.LBE952:
.LBE951:
.LBE950:
	.loc 2 946 0
	movq	%rax, 48(%rsp)
.LBB961:
.LBB960:
.LBB959:
.LBB958:
.LBB957:
.LBB956:
	.loc 3 300 0
	xorl	%eax, %eax
	call	syscall
.LBE956:
.LBE957:
.LBE958:
.LBE959:
.LBE960:
.LBE961:
.LBB962:
.LBB963:
.LBB964:
.LBB965:
	leaq	64(%rsp), %rcx
	movq	%rbp, %rdx
	movl	$4110344, %esi
	movl	$1879048192, %edi
	xorl	%eax, %eax
	call	syscall
.LBE965:
.LBE964:
.LBE963:
.LBE962:
.LBE949:
.LBE948:
.LBB966:
.LBB967:
	.loc 2 946 0
	movq	Task_CpuStats(%rip), %rax
.LBB968:
.LBB969:
.LBB970:
.LBB971:
.LBB972:
.LBB973:
	.loc 3 300 0
	leaq	16(%rsp), %rcx
	movq	%rbx, %rdx
	movl	$4130824, %esi
	movl	$1879048192, %edi
.LBE973:
.LBE972:
.LBE971:
.LBE970:
.LBE969:
.LBE968:
	.loc 2 946 0
	movq	%rax, 48(%rsp)
.LBB979:
.LBB978:
.LBB977:
.LBB976:
.LBB975:
.LBB974:
	.loc 3 300 0
	xorl	%eax, %eax
	call	syscall
.LBE974:
.LBE975:
.LBE976:
.LBE977:
.LBE978:
.LBE979:
.LBB980:
.LBB981:
.LBB982:
.LBB983:
	movq	%rsp, %rcx
	movq	%rbp, %rdx
	movl	$4110344, %esi
	movl	$1879048192, %edi
	xorl	%eax, %eax
	call	syscall
.LBE983:
.LBE982:
.LBE981:
.LBE980:
.LBE967:
.LBE966:
	.loc 1 1083 0
	addq	$184, %rsp
	popq	%rbx
	popq	%rbp
	ret
	.cfi_endproc
.LFE188:
	.size	delete_tasks, .-delete_tasks
	.section	.rodata.str1.1
.LC29:
	.string	"TSKCNT"
	.section	.rodata.str1.8
	.align 8
.LC30:
	.string	"[ERRO] N\303\243o foi poss\303\255vel criar a tarefa CNT (C-Benchmark)."
	.align 8
.LC31:
	.string	"%s[TASK %d] Criada com Sucesso  ================> %llu count => %.10f segundos \n"
	.section	.rodata.str1.1
.LC32:
	.string	"stats/time_in_state"
.LC33:
	.string	"%lu %llu"
	.text
	.p2align 4,,15
.globl init_task_cnt
	.type	init_task_cnt, @function
init_task_cnt:
.LFB176:
	.loc 1 392 0
	.cfi_startproc
.LVL198:
	pushq	%r15
.LCFI62:
	.cfi_def_cfa_offset 16
	.loc 1 399 0
	movl	$.LC29, %esi
	xorl	%edx, %edx
.LVL199:
	.loc 1 392 0
	pushq	%r14
.LCFI63:
	.cfi_def_cfa_offset 24
	pushq	%r13
.LCFI64:
	.cfi_def_cfa_offset 32
	pushq	%r12
.LCFI65:
	.cfi_def_cfa_offset 40
	pushq	%rbp
.LCFI66:
	.cfi_def_cfa_offset 48
	pushq	%rbx
.LCFI67:
	.cfi_def_cfa_offset 56
	.loc 1 399 0
	xorl	%ebx, %ebx
	.cfi_offset 3, -56
	.cfi_offset 6, -48
	.cfi_offset 12, -40
	.cfi_offset 13, -32
	.cfi_offset 14, -24
	.cfi_offset 15, -16
.LVL200:
	.loc 1 392 0
	subq	$824, %rsp
.LCFI68:
	.cfi_def_cfa_offset 880
	.loc 1 399 0
	movl	idTaskCnt(%rip), %ebp
	addl	$1, %ebp
.LVL201:
.L154:
.LBB1044:
.LBB1046:
	.loc 4 69 0
	movsbl	(%rsi),%eax
.LVL202:
	testl	%eax, %eax
	je	.L148
	.loc 4 71 0
	leal	-97(%rax), %ecx
	cmpl	$25, %ecx
	ja	.L149
	subl	$86, %eax
.LVL203:
	cltq
.L150:
	.loc 4 80 0
	leaq	(%rdx,%rdx,4), %rcx
	.loc 4 68 0
	addl	$1, %ebx
.LVL204:
	addq	$1, %rsi
	.loc 4 80 0
	salq	$3, %rcx
	subq	%rdx, %rcx
	.loc 4 68 0
	cmpl	$6, %ebx
	.loc 4 80 0
	leaq	(%rax,%rcx), %rdx
	.loc 4 68 0
	jne	.L154
.LVL205:
.L155:
.LBE1046:
.LBE1044:
.LBB1049:
.LBB1050:
.LBB1051:
.LBB1052:
	.loc 2 659 0
	movq	%rdx, %rax
	addq	$2, %rax
	jne	.L156
.LBB1053:
.LBB1054:
	.loc 2 653 0
	leaq	752(%rsp), %rdx
.LVL206:
	movl	$1001, %esi
	movl	$8, %edi
.LVL207:
	.loc 2 652 0
	movq	$0, 752(%rsp)
	.loc 2 653 0
	call	T.235
.LVL208:
.L156:
.LBE1054:
.LBE1053:
	.loc 2 663 0
	movl	$1, %edi
.LVL209:
	.loc 2 659 0
	movslq	%ebp,%rbx
.LVL210:
	movq	%rax, 304(%rsp)
	movq	%rbx, 312(%rsp)
	movq	$0, 320(%rsp)
	movq	$0, 328(%rsp)
	movq	$1, 336(%rsp)
	.loc 2 663 0
	call	sched_get_priority_max
.LVL211:
	subl	%ebp, %eax
	.loc 2 664 0
	movl	$1, %edx
	.loc 2 666 0
	movl	$1, %esi
	.loc 2 664 0
	testl	%eax, %eax
	cmovg	%eax, %edx
	.loc 2 666 0
	xorl	%edi, %edi
	.loc 2 664 0
	movl	%edx, 800(%rsp)
	.loc 2 666 0
	leaq	800(%rsp), %rdx
	call	sched_setscheduler
	testl	%eax, %eax
	js	.L158
	.loc 2 669 0
	movl	$3, %edi
	call	iopl
	.loc 2 670 0
	movl	$3, %edi
	call	mlockall
.LBB1055:
.LBB1056:
.LBB1057:
.LBB1058:
	.loc 3 300 0
	leaq	736(%rsp), %rcx
	leaq	304(%rsp), %rdx
	xorl	%eax, %eax
	movl	$4106280, %esi
	movl	$1879048192, %edi
	call	syscall
	.loc 3 304 0
	movq	736(%rsp), %rax
.LBE1058:
.LBE1057:
.LBE1056:
.LBE1055:
.LBE1052:
.LBE1051:
.LBE1050:
.LBE1049:
	.loc 1 401 0
	testq	%rax, %rax
	movq	%rax, Task_Cnt(%rip)
	je	.L178
	.loc 1 408 0
	movq	tick_period(%rip), %r13
.LBB1059:
.LBB1060:
.LBB1061:
.LBB1062:
.LBB1063:
.LBB1064:
	.loc 3 300 0
	leaq	720(%rsp), %rcx
	leaq	656(%rsp), %rdx
	movl	$43016, %esi
	movl	$1879048192, %edi
.LBE1064:
.LBE1063:
.LBE1062:
.LBE1061:
.LBE1060:
.LBE1059:
	.loc 1 407 0
	movq	start_timeline(%rip), %rbp
.LVL212:
.LBB1070:
.LBB1073:
	.loc 2 1665 0
	xorl	%r14d, %r14d
.LVL213:
.LBE1073:
.LBE1070:
	.loc 1 408 0
	imulq	$180, %r13, %rax
	movq	%rax, Tperiodo_Cnt(%rip)
.LBB1076:
.LBB1069:
	.loc 2 1146 0
	movq	%rax, 656(%rsp)
.LBB1068:
.LBB1067:
.LBB1066:
.LBB1065:
	.loc 3 300 0
	xorl	%eax, %eax
	call	syscall
.LBE1065:
.LBE1066:
.LBE1067:
.LBE1068:
.LBE1069:
.LBE1076:
	.loc 1 410 0
	cvtsi2sdq	720(%rsp), %xmm0
	divsd	.LC18(%rip), %xmm0
.LBB1077:
.LBB1078:
.LBB1079:
.LBB1080:
.LBB1081:
.LBB1082:
	.loc 3 300 0
	leaq	704(%rsp), %rcx
	leaq	784(%rsp), %rdx
	movl	$4143112, %esi
	movl	$1879048192, %edi
	xorl	%eax, %eax
.LBE1082:
.LBE1081:
.LBE1080:
.LBE1079:
.LBE1078:
.LBE1077:
	.loc 1 410 0
	movsd	%xmm0, 40(%rsp)
.LBB1088:
.LBB1087:
.LBB1086:
.LBB1085:
.LBB1084:
.LBB1083:
	.loc 3 300 0
	call	syscall
.LBE1083:
.LBE1084:
.LBE1085:
.LBE1086:
.LBE1087:
.LBE1088:
.LBB1089:
.LBB1090:
	.loc 2 1052 0
	movq	Task_Cnt(%rip), %rax
.LBB1091:
.LBB1092:
.LBB1093:
.LBB1094:
	.loc 3 300 0
	leaq	688(%rsp), %rcx
	leaq	560(%rsp), %rdx
	movl	$14360, %esi
	movl	$1879048192, %edi
.LBE1094:
.LBE1093:
.LBE1092:
.LBE1091:
	.loc 2 1052 0
	movq	%rbp, 568(%rsp)
	movq	%rax, 560(%rsp)
	movq	Tperiodo_Cnt(%rip), %rax
	movq	%rax, 576(%rsp)
.LBB1098:
.LBB1097:
.LBB1096:
.LBB1095:
	.loc 3 300 0
	xorl	%eax, %eax
	call	syscall
.LBE1095:
.LBE1096:
.LBE1097:
.LBE1098:
.LBE1090:
.LBE1089:
.LBB1099:
.LBB1100:
	.loc 2 922 0
	movq	Task_Cnt(%rip), %rax
.LBB1101:
.LBB1102:
.LBB1103:
.LBB1104:
	.loc 3 300 0
	leaq	672(%rsp), %rcx
	leaq	592(%rsp), %rdx
	movl	$145424, %esi
	movl	$1879048192, %edi
.LBE1104:
.LBE1103:
.LBE1102:
.LBE1101:
	.loc 2 922 0
	movq	%rbx, 600(%rsp)
.LBE1100:
.LBE1099:
.LBB1110:
.LBB1072:
	.loc 2 1665 0
	leaq	48(%rsp), %rbx
.LBE1072:
.LBE1110:
.LBB1111:
.LBB1109:
	.loc 2 922 0
	movq	%rax, 592(%rsp)
.LBB1108:
.LBB1107:
.LBB1106:
.LBB1105:
	.loc 3 300 0
	xorl	%eax, %eax
	call	syscall
.LBE1105:
.LBE1106:
.LBE1107:
.LBE1108:
.LBE1109:
.LBE1111:
	.loc 1 416 0
	movl	idTaskCnt(%rip), %edx
	movq	Tperiodo_Cnt(%rip), %rcx
	movl	$.LC31, %edi
	movsd	40(%rsp), %xmm0
	movslq	%edx,%rax
	leaq	arrayTextoCorIdTask(,%rax,8), %rsi
	movl	$1, %eax
	call	printf
.LBB1112:
.LBB1074:
	.loc 2 1665 0
	movl	cpuid_stats(%rip), %edi
	movl	$255, %ecx
	movq	%rbx, %rdx
	movl	$.LC32, %esi
	call	sysfs_read_cpu_file
	testl	%eax, %eax
.LVL214:
	movl	%eax, %r15d
.LVL215:
	je	.L161
	.loc 2 1668 0
	movq	$0, before_total_time(%rip)
	movq	%rbx, %rbp
.LVL216:
	movl	$1, %r13d
.LVL217:
	xorl	%edx, %edx
.LVL218:
	xorl	%esi, %esi
.LVL219:
	jmp	.L171
.LVL220:
	.p2align 4,,10
	.p2align 3
.L165:
	.loc 2 1697 0
	addq	$1, %rbp
	.loc 2 1670 0
	cmpl	%r13d, %r15d
	.loc 2 1697 0
	movq	%rdx, %r12
	leal	1(%r13), %eax
.LVL221:
	.loc 2 1670 0
	jbe	.L161
.LVL222:
.L185:
	movl	%eax, %r13d
	movq	%r12, %rdx
.LVL223:
.L171:
	.loc 2 1668 0
	movl	%ebp, %ecx
	.loc 2 1672 0
	movq	%rbx, %rdi
	.loc 2 1668 0
	subl	%ebx, %ecx
.LVL224:
.L162:
	.loc 2 1672 0
	movl	(%rdi), %r8d
	addq	$4, %rdi
	leal	-16843009(%r8), %eax
	notl	%r8d
	andl	%r8d, %eax
	andl	$-2139062144, %eax
	je	.L162
	movl	%eax, %r8d
	shrl	$16, %r8d
	testl	$32896, %eax
	cmove	%r8d, %eax
	leaq	2(%rdi), %r8
	cmove	%r8, %rdi
	addb	%al, %al
	movq	%rbp, %rax
	sbbq	$3, %rdi
	subq	%rbx, %rax
	subq	%rbx, %rdi
	cmpq	%rax, %rdi
	je	.L164
	cmpb	$10, (%rbp)
	jne	.L165
.L164:
	.loc 2 1674 0
	subl	%esi, %ecx
.LVL225:
	cmpl	$1, %ecx
	jbe	.L165
	.loc 2 1676 0
	cmpl	$254, %ecx
	.p2align 4,,3
	ja	.L166
	.loc 2 1678 0
	testq	%rdx, %rdx
	.p2align 4,,3
	je	.L167
	.loc 2 1679 0
	movl	$32, %edi
	movq	%rdx, 32(%rsp)
.LVL226:
	movl	%ecx, 16(%rsp)
	movl	%esi, 24(%rsp)
.LVL227:
	call	malloc
	movq	32(%rsp), %rdx
	.loc 2 1680 0
	testq	%rax, %rax
	.loc 2 1679 0
	movq	%rax, %r12
	.loc 2 1680 0
	movl	16(%rsp), %ecx
	movl	24(%rsp), %esi
	.loc 2 1679 0
	movq	%rax, 16(%rdx)
	.loc 2 1680 0
	je	.L166
.LVL228:
.L168:
	.loc 2 1692 0
	mov	%esi, %esi
.LVL229:
	mov	%ecx, %ecx
	leaq	304(%rsp), %rdi
	leaq	(%rbx,%rsi), %rsi
.LVL230:
	movq	%rcx, %rdx
	.loc 2 1689 0
	movq	%r14, 24(%r12)
	.loc 2 1690 0
	movq	$0, 16(%r12)
	.loc 2 1692 0
	movq	%rcx, 16(%rsp)
	call	memcpy
.LVL231:
	.loc 2 1693 0
	movq	16(%rsp), %rcx
	.loc 2 1694 0
	leaq	304(%rsp), %rdi
	xorl	%eax, %eax
	movq	%r12, %rdx
	movl	$.LC33, %esi
	.loc 2 1693 0
	movb	$0, 304(%rsp,%rcx)
	.loc 2 1694 0
	leaq	8(%r12), %rcx
	call	__isoc99_sscanf
	cmpl	$2, %eax
	jne	.L166
	.loc 2 1697 0
	movq	8(%r12), %rax
	addq	$1, %rbp
	addq	%rax, before_total_time(%rip)
	.loc 2 1670 0
	cmpl	%r13d, %r15d
.LVL232:
	.loc 2 1697 0
	movl	%r13d, %esi
	leal	1(%r13), %eax
.LVL233:
	.loc 2 1670 0
	ja	.L185
.LVL234:
	.p2align 4,,10
	.p2align 3
.L161:
.LBE1074:
.LBE1112:
	.loc 1 419 0
	movq	%r14, beforeStats(%rip)
.LBB1113:
.LBB1114:
	.loc 2 1652 0
	call	T.234
.LVL235:
.LBE1114:
.LBE1113:
	.loc 1 425 0
	movl	flagFimExecucao(%rip), %r12d
	.loc 1 420 0
	movq	%rax, before_total_trans(%rip)
.LVL236:
	.loc 1 425 0
	testl	%r12d, %r12d
	jne	.L186
	movq	qtdPeriodosCnt(%rip), %rcx
	leaq	640(%rsp), %r12
	leaq	624(%rsp), %rbp
.LVL237:
	leaq	608(%rsp), %r13
.LVL238:
	leaq	768(%rsp), %r14
.LVL239:
	jmp	.L177
.LVL240:
	.p2align 4,,10
	.p2align 3
.L175:
.LBB1115:
.LBB1116:
.LBB1117:
.LBB1118:
.LBB1119:
.LBB1120:
	.loc 3 300 0
	movq	%r13, %rcx
	xorl	%eax, %eax
	movq	%r14, %rdx
	movl	$18440, %esi
	movl	$1879048192, %edi
	call	syscall
.LVL241:
.LBE1120:
.LBE1119:
.LBE1118:
.LBE1117:
.LBE1116:
.LBE1115:
	.loc 1 469 0
	movq	qtdPeriodosCnt(%rip), %rcx
	.loc 1 425 0
	movl	flagFimExecucao(%rip), %r11d
	.loc 1 469 0
	addq	$1, %rcx
	.loc 1 425 0
	testl	%r11d, %r11d
	.loc 1 469 0
	movq	%rcx, qtdPeriodosCnt(%rip)
	.loc 1 425 0
	jne	.L174
.LVL242:
.L177:
	.loc 1 429 0
	movl	idTaskCnt(%rip), %edx
	movl	$.LC20, %edi
	movslq	%edx,%rax
.LVL243:
	leaq	arrayTextoCorIdTask(,%rax,8), %rsi
	xorl	%eax, %eax
	call	printf
.LBB1121:
.LBB1122:
	.loc 2 1146 0
	movq	Tperiodo_Cnt(%rip), %rax
.LBB1123:
.LBB1124:
.LBB1125:
.LBB1126:
	.loc 3 300 0
	leaq	656(%rsp), %rdx
	movq	%r12, %rcx
	movl	$43016, %esi
	movl	$1879048192, %edi
.LBE1126:
.LBE1125:
.LBE1124:
.LBE1123:
.LBE1122:
.LBE1121:
	.loc 1 432 0
	movq	$1421126000, WCEC_Cnt(%rip)
	.loc 1 433 0
	movq	$1421126000, RWCEC_Cnt(%rip)
	.loc 1 434 0
	movq	$0, SEC_Cnt(%rip)
.LBB1132:
.LBB1131:
	.loc 2 1146 0
	movq	%rax, 656(%rsp)
.LBB1130:
.LBB1129:
.LBB1128:
.LBB1127:
	.loc 3 300 0
	xorl	%eax, %eax
	call	syscall
.LBE1127:
.LBE1128:
.LBE1129:
.LBE1130:
.LBE1131:
.LBE1132:
	.loc 1 442 0
	cvtsi2sdq	640(%rsp), %xmm1
	divsd	.LC18(%rip), %xmm1
	movq	WCEC_Cnt(%rip), %rdx
.LBB1133:
.LBB1135:
	.loc 2 1492 0
	mov	cpuFrequencyMin_Cnt(%rip), %esi
	movq	Task_Cnt(%rip), %rdi
.LBE1135:
.LBE1133:
	.loc 1 442 0
	cvtsi2sdq	%rdx, %xmm0
.LBB1154:
.LBB1152:
	.loc 2 1492 0
	movq	%rdx, 56(%rsp)
	movq	%rdi, 48(%rsp)
.LBB1136:
.LBB1138:
.LBB1140:
.LBB1142:
	.loc 3 300 0
	movq	%rbx, %rdx
	movl	$1879048192, %edi
.LBE1142:
.LBE1140:
.LBE1138:
.LBE1136:
	.loc 2 1492 0
	movq	%rsi, 64(%rsp)
.LBB1149:
.LBB1147:
.LBB1145:
.LBB1143:
	.loc 3 300 0
	movl	$944168, %esi
.LBE1143:
.LBE1145:
.LBE1147:
.LBE1149:
.LBE1152:
.LBE1154:
	.loc 1 442 0
	divsd	%xmm1, %xmm0
	divsd	.LC22(%rip), %xmm0
	cvttsd2si	%xmm0, %eax
	movl	%eax, %ecx
	sarl	$31, %ecx
	xorl	%ecx, %eax
	subl	%ecx, %eax
.LBB1155:
.LBB1134:
	.loc 2 1492 0
	mov	cpuVoltageInicial_Cnt(%rip), %ecx
.LBE1134:
.LBE1155:
	.loc 1 442 0
	movl	%eax, cpuFrequencyInicial_Cnt(%rip)
.LBB1156:
.LBB1153:
	.loc 2 1492 0
	mov	%eax, %eax
	movq	%rax, 72(%rsp)
.LBB1150:
.LBB1137:
.LBB1139:
.LBB1141:
	.loc 3 300 0
	xorl	%eax, %eax
.LBE1141:
.LBE1139:
.LBE1137:
.LBE1150:
	.loc 2 1492 0
	movq	%rcx, 80(%rsp)
.LBB1151:
.LBB1148:
.LBB1146:
.LBB1144:
	.loc 3 300 0
	movq	%rbp, %rcx
	call	syscall
.LBE1144:
.LBE1146:
.LBE1148:
.LBE1151:
.LBE1153:
.LBE1156:
	.loc 1 451 0
	movl	$Array, %edi
.LBB1157:
.LBB1158:
	.loc 1 387 0
	movl	$0, SeedCnt(%rip)
.LBE1158:
.LBE1157:
	.loc 1 451 0
	call	TestCnt
	.loc 1 455 0
	movq	qtdPeriodosCnt(%rip), %rdx
	movq	Task_Cnt(%rip), %rsi
	movl	idTaskCnt(%rip), %edi
	call	getTempoProcessamento
	.loc 1 456 0
	cvtsi2sdq	%rax, %xmm1
.LVL244:
	.loc 1 458 0
	movl	idTaskCnt(%rip), %edx
	movl	$.LC21, %edi
	movslq	%edx,%rax
.LVL245:
	leaq	arrayTextoCorIdTask(,%rax,8), %rsi
	movl	$1, %eax
	.loc 1 456 0
	divsd	.LC18(%rip), %xmm1
	.loc 1 458 0
	movapd	%xmm1, %xmm0
	movsd	%xmm1, (%rsp)
.LVL246:
	call	printf
	.loc 1 461 0
	movsd	(%rsp), %xmm1
	ucomisd	40(%rsp), %xmm1
.LVL247:
	jbe	.L175
	.loc 1 465 0
	movl	idTaskCnt(%rip), %edx
	.loc 1 463 0
	movq	qtdDeadlinesVioladosCnt(%rip), %r8
	.loc 1 465 0
	movl	$.LC23, %edi
	movq	qtdPeriodosCnt(%rip), %rcx
	movslq	%edx,%rax
	.loc 1 463 0
	addq	$1, %r8
	.loc 1 465 0
	leaq	arrayTextoCorIdTask(,%rax,8), %rsi
	xorl	%eax, %eax
	.loc 1 463 0
	movq	%r8, qtdDeadlinesVioladosCnt(%rip)
	.loc 1 465 0
	call	printf
.LVL248:
	jmp	.L175
.LVL249:
	.p2align 4,,10
	.p2align 3
.L149:
.LBB1159:
.LBB1047:
	.loc 4 73 0
	leal	-65(%rax), %ecx
	cmpl	$25, %ecx
	ja	.L151
	subl	$54, %eax
.LVL250:
	cltq
	.p2align 4,,3
	jmp	.L150
.LVL251:
	.p2align 4,,10
	.p2align 3
.L151:
	.loc 4 75 0
	leal	-48(%rax), %ecx
	cmpl	$9, %ecx
	ja	.L152
	subl	$47, %eax
.LVL252:
	cltq
	jmp	.L150
.LVL253:
.L186:
.LBE1047:
.LBE1159:
	.loc 1 425 0
	movq	qtdPeriodosCnt(%rip), %rcx
	.p2align 4,,10
	.p2align 3
.L174:
	.loc 1 472 0
	movl	idTaskCnt(%rip), %edx
	movq	qtdDeadlinesVioladosCnt(%rip), %r8
	movl	$.LC24, %edi
	movslq	%edx,%rax
.LVL254:
	leaq	arrayTextoCorIdTask(,%rax,8), %rsi
	xorl	%eax, %eax
	call	printf
	.loc 1 475 0
	addq	$824, %rsp
	xorl	%eax, %eax
	popq	%rbx
	popq	%rbp
.LVL255:
	popq	%r12
	popq	%r13
.LVL256:
	popq	%r14
.LVL257:
	popq	%r15
.LVL258:
	ret
.LVL259:
	.p2align 4,,10
	.p2align 3
.L167:
.LBB1160:
.LBB1071:
	.loc 2 1684 0
	movl	$32, %edi
	movl	%ecx, 16(%rsp)
	movl	%esi, 24(%rsp)
.LVL260:
	call	malloc
.LVL261:
	.loc 2 1685 0
	testq	%rax, %rax
	.loc 2 1684 0
	movq	%rax, %r14
.LVL262:
	.loc 2 1685 0
	movl	16(%rsp), %ecx
	movl	24(%rsp), %esi
	je	.L161
	movq	%rax, %r12
	jmp	.L168
.LVL263:
	.p2align 4,,10
	.p2align 3
.L152:
.LBE1071:
.LBE1160:
.LBB1161:
.LBB1045:
	.loc 4 78 0
	cmpl	$95, %eax
	setne	%al
.LVL264:
	movzbl	%al, %eax
	addq	$37, %rax
	jmp	.L150
.LVL265:
	.p2align 4,,10
	.p2align 3
.L158:
.LBE1045:
.LBE1161:
	.loc 1 401 0
	movq	$0, Task_Cnt(%rip)
.L178:
	.loc 1 403 0
	movl	$.LC30, %edi
	call	puts
	.loc 1 404 0
	movl	$1, %edi
	call	exit
.LVL266:
	.p2align 4,,10
	.p2align 3
.L166:
.LBB1162:
.LBB1075:
	.loc 2 1705 0
	testq	%r14, %r14
	jne	.L184
.LVL267:
	.p2align 4,,4
	jmp	.L161
.LVL268:
	.p2align 4,,10
	.p2align 3
.L172:
	.loc 2 1670 0
	movq	%rbp, %r14
.LVL269:
.L184:
	.loc 2 1706 0
	movq	16(%r14), %rbp
.LVL270:
	.loc 2 1707 0
	movq	%r14, %rdi
	call	free
	.loc 2 1705 0
	testq	%rbp, %rbp
	jne	.L172
	xorl	%r14d, %r14d
.LVL271:
	jmp	.L161
.LVL272:
	.p2align 4,,10
	.p2align 3
.L148:
.LBE1075:
.LBE1162:
.LBB1163:
.LBB1048:
	.loc 4 82 0
	testl	%ebx, %ebx
	movl	$4294967295, %eax
.LVL273:
	.p2align 4,,3
	je	.L156
	.p2align 4,,5
	jmp	.L155
.LBE1048:
.LBE1163:
	.cfi_endproc
.LFE176:
	.size	init_task_cnt, .-init_task_cnt
	.section	.rodata.str1.1
.LC34:
	.string	"TSKCPU"
	.section	.rodata.str1.8
	.align 8
.LC35:
	.string	"[ERRO] N\303\243o foi poss\303\255vel criar a tarefa Cpu Stats."
	.align 8
.LC36:
	.string	"%s[TASK %d] Processando... 100%% ==============> Freq: %8d Khz ==============> Curr Freq: %8d Khz\n"
	.align 8
.LC37:
	.string	"************** ESTATISTICAS PARCIAIS **************"
	.align 8
.LC38:
	.string	"************** ESTATISTICAS FINAL **************"
	.text
	.p2align 4,,15
.globl init_task_cpustats
	.type	init_task_cpustats, @function
init_task_cpustats:
.LFB186:
	.loc 1 897 0
	.cfi_startproc
.LVL274:
	pushq	%r15
.LCFI69:
	.cfi_def_cfa_offset 16
	.loc 1 907 0
	xorl	%edx, %edx
.LVL275:
	xorl	%esi, %esi
.LVL276:
	.loc 1 897 0
	pushq	%r14
.LCFI70:
	.cfi_def_cfa_offset 24
	pushq	%r13
.LCFI71:
	.cfi_def_cfa_offset 32
	pushq	%r12
.LCFI72:
	.cfi_def_cfa_offset 40
	pushq	%rbp
.LCFI73:
	.cfi_def_cfa_offset 48
	pushq	%rbx
.LCFI74:
	.cfi_def_cfa_offset 56
	.loc 1 907 0
	movl	$.LC34, %ebx
	.cfi_offset 3, -56
	.cfi_offset 6, -48
	.cfi_offset 12, -40
	.cfi_offset 13, -32
	.cfi_offset 14, -24
	.cfi_offset 15, -16
	.loc 1 897 0
	subq	$952, %rsp
.LCFI75:
	.cfi_def_cfa_offset 1008
	.loc 1 907 0
	movl	idTaskCpuStats(%rip), %ebp
	addl	$1, %ebp
.LVL277:
.L194:
.LBB1250:
.LBB1253:
	.loc 4 69 0
	movsbl	(%rbx),%eax
.LVL278:
	testl	%eax, %eax
	je	.L188
	.loc 4 71 0
	leal	-97(%rax), %ecx
	cmpl	$25, %ecx
	ja	.L189
	subl	$86, %eax
.LVL279:
	cltq
.L190:
	.loc 4 80 0
	leaq	(%rdx,%rdx,4), %rcx
	.loc 4 68 0
	addl	$1, %esi
.LVL280:
	addq	$1, %rbx
	.loc 4 80 0
	salq	$3, %rcx
	subq	%rdx, %rcx
	.loc 4 68 0
	cmpl	$6, %esi
	.loc 4 80 0
	leaq	(%rax,%rcx), %rdx
.LVL281:
	.loc 4 68 0
	jne	.L194
.LVL282:
.L195:
.LBE1253:
.LBE1250:
.LBB1256:
.LBB1257:
.LBB1258:
.LBB1259:
	.loc 2 659 0
	movq	%rdx, %rax
	addq	$2, %rax
	jne	.L196
.LBB1260:
.LBB1261:
	.loc 2 653 0
	leaq	864(%rsp), %rdx
.LVL283:
	movl	$1001, %esi
.LVL284:
	movl	$8, %edi
.LVL285:
	.loc 2 652 0
	movq	$0, 864(%rsp)
	.loc 2 653 0
	call	T.235
.LVL286:
.L196:
.LBE1261:
.LBE1260:
	.loc 2 663 0
	movl	$1, %edi
.LVL287:
	.loc 2 659 0
	movslq	%ebp,%rbx
	movq	%rax, 64(%rsp)
	movq	%rbx, 72(%rsp)
	movq	$0, 80(%rsp)
	movq	$0, 88(%rsp)
	movq	$1, 96(%rsp)
	.loc 2 663 0
	call	sched_get_priority_max
.LVL288:
	subl	%ebp, %eax
	.loc 2 664 0
	movl	$1, %edx
	.loc 2 666 0
	movl	$1, %esi
	.loc 2 664 0
	testl	%eax, %eax
	cmovg	%eax, %edx
	.loc 2 666 0
	xorl	%edi, %edi
	.loc 2 664 0
	movl	%edx, 928(%rsp)
	.loc 2 666 0
	leaq	928(%rsp), %rdx
	call	sched_setscheduler
	testl	%eax, %eax
	js	.L198
	.loc 2 669 0
	movl	$3, %edi
.LBB1262:
.LBB1263:
.LBB1264:
.LBB1265:
	.loc 3 300 0
	leaq	64(%rsp), %rbp
.LVL289:
.LBE1265:
.LBE1264:
.LBE1263:
.LBE1262:
	.loc 2 669 0
	call	iopl
	.loc 2 670 0
	movl	$3, %edi
	call	mlockall
.LBB1269:
.LBB1268:
.LBB1267:
.LBB1266:
	.loc 3 300 0
	leaq	848(%rsp), %rcx
	xorl	%eax, %eax
	movq	%rbp, %rdx
	movl	$4106280, %esi
	movl	$1879048192, %edi
	call	syscall
	.loc 3 304 0
	movq	848(%rsp), %rax
.LBE1266:
.LBE1267:
.LBE1268:
.LBE1269:
.LBE1259:
.LBE1258:
.LBE1257:
.LBE1256:
	.loc 1 909 0
	testq	%rax, %rax
	movq	%rax, Task_CpuStats(%rip)
	je	.L233
	.loc 1 916 0
	movq	tick_period(%rip), %rdx
.LBB1270:
.LBB1272:
.LBB1274:
.LBB1276:
.LBB1278:
.LBB1280:
	.loc 3 300 0
	leaq	832(%rsp), %rcx
	movl	$43016, %esi
	movl	$1879048192, %edi
.LBE1280:
.LBE1278:
.LBE1276:
.LBE1274:
.LBE1272:
.LBE1270:
	.loc 1 915 0
	movq	start_timeline(%rip), %r12
.LVL290:
	.loc 1 916 0
	imulq	$180, %rdx, %rax
.LBB1286:
.LBB1271:
.LBB1273:
.LBB1275:
.LBB1277:
.LBB1279:
	.loc 3 300 0
	leaq	656(%rsp), %rdx
.LBE1279:
.LBE1277:
.LBE1275:
.LBE1273:
.LBE1271:
.LBE1286:
	.loc 1 916 0
	movq	%rax, Tperiodo_CpuStats(%rip)
.LBB1287:
.LBB1285:
	.loc 2 1146 0
	movq	%rax, 656(%rsp)
.LBB1284:
.LBB1283:
.LBB1282:
.LBB1281:
	.loc 3 300 0
	xorl	%eax, %eax
	call	syscall
.LBE1281:
.LBE1282:
.LBE1283:
.LBE1284:
.LBE1285:
.LBE1287:
	.loc 1 918 0
	cvtsi2sdq	832(%rsp), %xmm0
	divsd	.LC18(%rip), %xmm0
.LBB1288:
.LBB1289:
.LBB1290:
.LBB1291:
.LBB1292:
.LBB1293:
	.loc 3 300 0
	leaq	816(%rsp), %rcx
	leaq	896(%rsp), %rdx
	movl	$4143112, %esi
	movl	$1879048192, %edi
	xorl	%eax, %eax
.LBE1293:
.LBE1292:
.LBE1291:
.LBE1290:
.LBE1289:
.LBE1288:
	.loc 1 918 0
	movsd	%xmm0, 48(%rsp)
.LBB1299:
.LBB1298:
.LBB1297:
.LBB1296:
.LBB1295:
.LBB1294:
	.loc 3 300 0
	call	syscall
.LBE1294:
.LBE1295:
.LBE1296:
.LBE1297:
.LBE1298:
.LBE1299:
.LBB1300:
.LBB1301:
	.loc 2 1052 0
	movq	Task_CpuStats(%rip), %rax
.LBB1302:
.LBB1303:
.LBB1304:
.LBB1305:
	.loc 3 300 0
	leaq	800(%rsp), %rcx
	leaq	576(%rsp), %rdx
	movl	$14360, %esi
	movl	$1879048192, %edi
.LBE1305:
.LBE1304:
.LBE1303:
.LBE1302:
	.loc 2 1052 0
	movq	%r12, 584(%rsp)
	movq	%rax, 576(%rsp)
	movq	Tperiodo_CpuStats(%rip), %rax
	movq	%rax, 592(%rsp)
.LBB1309:
.LBB1308:
.LBB1307:
.LBB1306:
	.loc 3 300 0
	xorl	%eax, %eax
	call	syscall
.LBE1306:
.LBE1307:
.LBE1308:
.LBE1309:
.LBE1301:
.LBE1300:
.LBB1310:
.LBB1311:
	.loc 2 922 0
	movq	Task_CpuStats(%rip), %rax
.LBB1312:
.LBB1313:
.LBB1314:
.LBB1315:
	.loc 3 300 0
	leaq	784(%rsp), %rcx
	leaq	608(%rsp), %rdx
	movl	$145424, %esi
	movl	$1879048192, %edi
.LBE1315:
.LBE1314:
.LBE1313:
.LBE1312:
	.loc 2 922 0
	movq	%rbx, 616(%rsp)
	movq	%rax, 608(%rsp)
.LBB1319:
.LBB1318:
.LBB1317:
.LBB1316:
	.loc 3 300 0
	xorl	%eax, %eax
	call	syscall
.LBE1316:
.LBE1317:
.LBE1318:
.LBE1319:
.LBE1311:
.LBE1310:
	.loc 1 924 0
	movl	idTaskCpuStats(%rip), %edx
	movq	Tperiodo_CpuStats(%rip), %rcx
	movl	$.LC19, %edi
	movsd	48(%rsp), %xmm0
	movslq	%edx,%rax
	leaq	arrayTextoCorIdTask(,%rax,8), %rsi
	movl	$1, %eax
	call	printf
	.loc 1 926 0
	movl	flagFimExecucao(%rip), %eax
	testl	%eax, %eax
	jne	.L248
	movq	qtdPeriodosCpuStats(%rip), %rcx
	movl	$1, 60(%rsp)
	leaq	320(%rsp), %rbx
	jmp	.L232
.LVL291:
	.p2align 4,,10
	.p2align 3
.L202:
	.loc 1 971 0
	movl	60(%rsp), %edx
	movl	$30, %r15d
.LVL292:
	imull	%r15d, %edx
	movslq	%edx,%rdx
	cmpq	%rdx, %rax
	jge	.L249
.LVL293:
.L216:
	.loc 1 986 0
	movq	qtdPeriodosCpuStats(%rip), %rdx
	movq	Task_CpuStats(%rip), %rsi
	movl	idTaskCpuStats(%rip), %edi
	call	getTempoProcessamento
.LVL294:
	.loc 1 987 0
	cvtsi2sdq	%rax, %xmm1
.LVL295:
	.loc 1 989 0
	movl	idTaskCpuStats(%rip), %edx
	movl	$.LC21, %edi
	movslq	%edx,%rax
.LVL296:
	leaq	arrayTextoCorIdTask(,%rax,8), %rsi
	movl	$1, %eax
	.loc 1 987 0
	divsd	.LC18(%rip), %xmm1
	.loc 1 989 0
	movapd	%xmm1, %xmm0
	movsd	%xmm1, 16(%rsp)
.LVL297:
	call	printf
	.loc 1 992 0
	movsd	16(%rsp), %xmm1
	ucomisd	48(%rsp), %xmm1
.LVL298:
	ja	.L250
.L230:
.LBB1320:
.LBB1321:
.LBB1322:
.LBB1323:
.LBB1324:
.LBB1325:
	.loc 3 300 0
	leaq	624(%rsp), %rcx
	leaq	880(%rsp), %rdx
	xorl	%eax, %eax
	movl	$18440, %esi
	movl	$1879048192, %edi
	call	syscall
.LVL299:
.LBE1325:
.LBE1324:
.LBE1323:
.LBE1322:
.LBE1321:
.LBE1320:
	.loc 1 1001 0
	movq	qtdPeriodosCpuStats(%rip), %rcx
	.loc 1 926 0
	movl	flagFimExecucao(%rip), %r14d
.LVL300:
	.loc 1 1001 0
	addq	$1, %rcx
	.loc 1 926 0
	testl	%r14d, %r14d
	.loc 1 1001 0
	movq	%rcx, qtdPeriodosCpuStats(%rip)
	.loc 1 926 0
	jne	.L201
.LVL301:
.L232:
	.loc 1 929 0
	movl	idTaskCpuStats(%rip), %edx
	movl	$.LC20, %edi
	movslq	%edx,%rax
	leaq	arrayTextoCorIdTask(,%rax,8), %rsi
	xorl	%eax, %eax
	call	printf
.LBB1326:
.LBB1327:
	.loc 2 1146 0
	movq	Tperiodo_CpuStats(%rip), %rax
.LBB1328:
.LBB1329:
.LBB1330:
.LBB1331:
	.loc 3 300 0
	leaq	768(%rsp), %rcx
	leaq	656(%rsp), %rdx
	movl	$43016, %esi
	movl	$1879048192, %edi
.LBE1331:
.LBE1330:
.LBE1329:
.LBE1328:
.LBE1327:
.LBE1326:
	.loc 1 932 0
	movq	$0, WCEC_CpuStats(%rip)
	.loc 1 933 0
	movq	$0, RWCEC_CpuStats(%rip)
	.loc 1 934 0
	movq	$0, SEC_CpuStats(%rip)
.LBB1337:
.LBB1336:
	.loc 2 1146 0
	movq	%rax, 656(%rsp)
.LBB1335:
.LBB1334:
.LBB1333:
.LBB1332:
	.loc 3 300 0
	xorl	%eax, %eax
	call	syscall
.LBE1332:
.LBE1333:
.LBE1334:
.LBE1335:
.LBE1336:
.LBE1337:
	.loc 1 942 0
	cvtsi2sdq	768(%rsp), %xmm1
	cvtsi2sdq	WCEC_CpuStats(%rip), %xmm0
	divsd	.LC18(%rip), %xmm1
.LBB1338:
.LBB1340:
	.loc 2 1492 0
	movq	Task_CpuStats(%rip), %rsi
.LBB1341:
.LBB1344:
.LBB1347:
.LBB1350:
	.loc 3 300 0
	movl	$1879048192, %edi
.LBE1350:
.LBE1347:
.LBE1344:
.LBE1341:
	.loc 2 1492 0
	mov	cpuFrequencyMin_CpuStats(%rip), %ecx
	movq	%rsi, 320(%rsp)
	movq	WCEC_CpuStats(%rip), %rsi
	movq	%rcx, 336(%rsp)
.LBB1357:
.LBB1343:
.LBB1346:
.LBB1349:
	.loc 3 300 0
	leaq	752(%rsp), %rcx
.LBE1349:
.LBE1346:
.LBE1343:
.LBE1357:
	.loc 2 1492 0
	movq	%rsi, 328(%rsp)
.LBB1358:
.LBB1355:
.LBB1353:
.LBB1351:
	.loc 3 300 0
	movl	$944168, %esi
.LBE1351:
.LBE1353:
.LBE1355:
.LBE1358:
.LBE1340:
.LBE1338:
	.loc 1 942 0
	divsd	%xmm1, %xmm0
	divsd	.LC22(%rip), %xmm0
	cvttsd2si	%xmm0, %eax
	movl	%eax, %edx
	sarl	$31, %edx
	xorl	%edx, %eax
	subl	%edx, %eax
.LBB1362:
.LBB1339:
	.loc 2 1492 0
	mov	cpuVoltageInicial_CpuStats(%rip), %edx
.LBE1339:
.LBE1362:
	.loc 1 942 0
	movl	%eax, cpuFrequencyInicial_CpuStats(%rip)
.LBB1363:
.LBB1361:
	.loc 2 1492 0
	mov	%eax, %eax
	movq	%rax, 344(%rsp)
.LBB1359:
.LBB1342:
.LBB1345:
.LBB1348:
	.loc 3 300 0
	xorl	%eax, %eax
.LBE1348:
.LBE1345:
.LBE1342:
.LBE1359:
	.loc 2 1492 0
	movq	%rdx, 352(%rsp)
.LBB1360:
.LBB1356:
.LBB1354:
.LBB1352:
	.loc 3 300 0
	movq	%rbx, %rdx
	call	syscall
.LBE1352:
.LBE1354:
.LBE1356:
.LBE1360:
.LBE1361:
.LBE1363:
.LBB1364:
.LBB1365:
.LBB1367:
.LBB1369:
.LBB1371:
.LBB1373:
	leaq	736(%rsp), %rcx
	leaq	912(%rsp), %rdx
	movl	$1005572, %esi
	movl	$1879048192, %edi
	xorl	%eax, %eax
.LBE1373:
.LBE1371:
.LBE1369:
.LBE1367:
	.loc 2 1739 0
	movl	$0, 912(%rsp)
.LBB1366:
.LBB1368:
.LBB1370:
.LBB1372:
	.loc 3 300 0
	call	syscall
.LBE1372:
.LBE1370:
.LBE1368:
.LBE1366:
.LBE1365:
.LBE1364:
.LBB1379:
.LBB1381:
	.loc 2 1528 0
	movq	Task_CpuStats(%rip), %rax
.LBB1383:
.LBB1385:
.LBB1387:
.LBB1389:
	.loc 3 300 0
	leaq	704(%rsp), %rcx
	leaq	720(%rsp), %rdx
	movl	$968712, %esi
	movl	$1879048192, %edi
.LBE1389:
.LBE1387:
.LBE1385:
.LBE1383:
.LBE1381:
.LBE1379:
.LBB1395:
.LBB1378:
.LBB1377:
.LBB1376:
.LBB1375:
.LBB1374:
	.loc 3 304 0
	movq	736(%rsp), %r12
.LVL302:
.LBE1374:
.LBE1375:
.LBE1376:
.LBE1377:
.LBE1378:
.LBE1395:
.LBB1396:
.LBB1380:
	.loc 2 1528 0
	movq	%rax, 720(%rsp)
.LBB1382:
.LBB1384:
.LBB1386:
.LBB1388:
	.loc 3 300 0
	xorl	%eax, %eax
	call	syscall
.LBE1388:
.LBE1386:
.LBE1384:
.LBE1382:
.LBE1380:
.LBE1396:
	.loc 1 952 0
	movl	idTaskCpuStats(%rip), %edx
.LBB1397:
.LBB1394:
.LBB1393:
.LBB1392:
.LBB1391:
.LBB1390:
	.loc 3 304 0
	movq	704(%rsp), %rcx
.LBE1390:
.LBE1391:
.LBE1392:
.LBE1393:
.LBE1394:
.LBE1397:
	.loc 1 952 0
	movl	%r12d, %r8d
	movl	$.LC36, %edi
	movslq	%edx,%rax
	.loc 1 951 0
	movl	%ecx, cpuFrequencyAtual_CpuStats(%rip)
	.loc 1 952 0
	leaq	arrayTextoCorIdTask(,%rax,8), %rsi
	xorl	%eax, %eax
	call	printf
.LBB1398:
.LBB1399:
.LBB1400:
.LBB1401:
.LBB1402:
.LBB1403:
	.loc 3 300 0
	leaq	672(%rsp), %rcx
	leaq	688(%rsp), %rdx
	movl	$38920, %esi
	movl	$1879048192, %edi
	xorl	%eax, %eax
	call	syscall
	.loc 3 304 0
	movq	672(%rsp), %rax
.LBE1403:
.LBE1402:
.LBE1401:
.LBE1400:
.LBE1399:
.LBE1398:
.LBB1404:
.LBB1405:
.LBB1406:
.LBB1407:
.LBB1408:
.LBB1409:
	.loc 3 300 0
	leaq	640(%rsp), %rcx
	leaq	656(%rsp), %rdx
	movl	$43016, %esi
	movl	$1879048192, %edi
.LBE1409:
.LBE1408:
.LBE1407:
.LBE1406:
.LBE1405:
.LBE1404:
	.loc 1 956 0
	movq	%rax, timerTerminoExperimento(%rip)
.LBB1415:
.LBB1414:
	.loc 2 1146 0
	subq	timerInicioExperimento(%rip), %rax
	movq	%rax, 656(%rsp)
.LBB1413:
.LBB1412:
.LBB1411:
.LBB1410:
	.loc 3 300 0
	xorl	%eax, %eax
	call	syscall
.LBE1410:
.LBE1411:
.LBE1412:
.LBE1413:
.LBE1414:
.LBE1415:
	.loc 1 957 0
	cvtsi2sdq	640(%rsp), %xmm0
	divsd	.LC18(%rip), %xmm0
	cvttsd2siq	%xmm0, %rax
	.loc 1 962 0
	cmpq	$3599, %rax
	.loc 1 957 0
	movq	%rax, tempoTotalExperimento(%rip)
	.loc 1 962 0
	jle	.L202
.LBB1416:
.LBB1418:
	.loc 2 1665 0
	movl	cpuid_stats(%rip), %edi
	movl	$255, %ecx
	movq	%rbx, %rdx
	movl	$.LC32, %esi
.LBE1418:
.LBE1416:
	.loc 1 965 0
	movl	$1, flagFimExecucao(%rip)
.LBB1421:
.LBB1419:
	.loc 2 1665 0
	xorl	%r15d, %r15d
.LVL303:
	call	sysfs_read_cpu_file
	testl	%eax, %eax
.LVL304:
	je	.L204
	.loc 2 1668 0
	movq	%r15, 40(%rsp)
	movq	$0, after_total_time(%rip)
	movq	%rbx, %r12
	movl	$1, %r14d
.LVL305:
	xorl	%edx, %edx
.LVL306:
	xorl	%esi, %esi
.LVL307:
	movl	%eax, %r15d
	jmp	.L214
.LVL308:
	.p2align 4,,10
	.p2align 3
.L208:
	.loc 2 1697 0
	addq	$1, %r12
	.loc 2 1670 0
	cmpl	%r15d, %r14d
	.loc 2 1697 0
	movq	%rdx, %r13
	leal	1(%r14), %eax
.LVL309:
	.loc 2 1670 0
	jae	.L244
.LVL310:
.L251:
	movl	%eax, %r14d
	movq	%r13, %rdx
.LVL311:
.L214:
	.loc 2 1668 0
	movl	%r12d, %ecx
	.loc 2 1672 0
	movq	%rbx, %rdi
	.loc 2 1668 0
	subl	%ebx, %ecx
.LVL312:
.L205:
	.loc 2 1672 0
	movl	(%rdi), %r8d
	addq	$4, %rdi
	leal	-16843009(%r8), %eax
	notl	%r8d
	andl	%r8d, %eax
	andl	$-2139062144, %eax
	je	.L205
	movl	%eax, %r8d
	shrl	$16, %r8d
	testl	$32896, %eax
	cmove	%r8d, %eax
	leaq	2(%rdi), %r8
	cmove	%r8, %rdi
	addb	%al, %al
	movq	%r12, %rax
	sbbq	$3, %rdi
	subq	%rbx, %rax
	subq	%rbx, %rdi
	cmpq	%rdi, %rax
	je	.L207
	cmpb	$10, (%r12)
	jne	.L208
.L207:
	.loc 2 1674 0
	subl	%esi, %ecx
.LVL313:
	cmpl	$1, %ecx
	jbe	.L208
	.loc 2 1676 0
	cmpl	$254, %ecx
	.p2align 4,,3
	ja	.L209
	.loc 2 1678 0
	testq	%rdx, %rdx
	.p2align 4,,3
	je	.L210
	.loc 2 1679 0
	movl	$32, %edi
	movq	%rdx, 16(%rsp)
.LVL314:
	movl	%ecx, (%rsp)
	movl	%esi, 8(%rsp)
.LVL315:
	call	malloc
	movq	16(%rsp), %rdx
	.loc 2 1680 0
	testq	%rax, %rax
	.loc 2 1679 0
	movq	%rax, %r13
	.loc 2 1680 0
	movl	(%rsp), %ecx
	movl	8(%rsp), %esi
	.loc 2 1679 0
	movq	%rax, 16(%rdx)
	.loc 2 1680 0
	je	.L209
.L211:
	.loc 2 1689 0
	movq	40(%rsp), %rax
	.loc 2 1692 0
	mov	%esi, %esi
.LVL316:
	mov	%ecx, %ecx
	leaq	(%rbx,%rsi), %rsi
.LVL317:
	movq	%rcx, %rdx
	movq	%rbp, %rdi
	.loc 2 1690 0
	movq	$0, 16(%r13)
	.loc 2 1692 0
	movq	%rcx, (%rsp)
	.loc 2 1689 0
	movq	%rax, 24(%r13)
	.loc 2 1692 0
	call	memcpy
	.loc 2 1693 0
	movq	(%rsp), %rcx
	.loc 2 1694 0
	xorl	%eax, %eax
	movq	%r13, %rdx
	movl	$.LC33, %esi
	movq	%rbp, %rdi
	.loc 2 1693 0
	movb	$0, 64(%rsp,%rcx)
	.loc 2 1694 0
	leaq	8(%r13), %rcx
	call	__isoc99_sscanf
	cmpl	$2, %eax
	jne	.L209
	.loc 2 1697 0
	movq	8(%r13), %rax
	addq	$1, %r12
	addq	%rax, after_total_time(%rip)
	.loc 2 1670 0
	cmpl	%r15d, %r14d
.LVL318:
	.loc 2 1697 0
	movl	%r14d, %esi
	leal	1(%r14), %eax
.LVL319:
	.loc 2 1670 0
	jb	.L251
.LVL320:
.L244:
	movq	40(%rsp), %r15
.LVL321:
.L204:
.LBE1419:
.LBE1421:
	.loc 1 968 0
	movq	%r15, afterStats(%rip)
.LBB1422:
.LBB1423:
	.loc 2 1652 0
	call	T.234
.LVL322:
.LBE1423:
.LBE1422:
	.loc 1 969 0
	movq	%rax, after_total_trans(%rip)
.LVL323:
	jmp	.L216
.LVL324:
	.p2align 4,,10
	.p2align 3
.L250:
	.loc 1 996 0
	movl	idTaskCpuStats(%rip), %edx
	.loc 1 994 0
	movq	qtdDeadlinesVioladosCpuStats(%rip), %r8
	.loc 1 996 0
	movl	$.LC23, %edi
	movq	qtdPeriodosCpuStats(%rip), %rcx
	movslq	%edx,%rax
	.loc 1 994 0
	addq	$1, %r8
	.loc 1 996 0
	leaq	arrayTextoCorIdTask(,%rax,8), %rsi
	xorl	%eax, %eax
	.loc 1 994 0
	movq	%r8, qtdDeadlinesVioladosCpuStats(%rip)
	.loc 1 996 0
	call	printf
.LVL325:
	jmp	.L230
.LVL326:
	.p2align 4,,10
	.p2align 3
.L189:
.LBB1424:
.LBB1252:
	.loc 4 73 0
	leal	-65(%rax), %ecx
	cmpl	$25, %ecx
	ja	.L191
	subl	$54, %eax
.LVL327:
	cltq
	.p2align 4,,3
	jmp	.L190
.LVL328:
	.p2align 4,,10
	.p2align 3
.L210:
.LBE1252:
.LBE1424:
.LBB1425:
.LBB1417:
	.loc 2 1684 0
	movl	$32, %edi
	movl	%ecx, (%rsp)
	movl	%esi, 8(%rsp)
.LVL329:
	call	malloc
.LVL330:
	.loc 2 1685 0
	testq	%rax, %rax
	.loc 2 1684 0
	movq	%rax, 40(%rsp)
	.loc 2 1685 0
	movl	(%rsp), %ecx
	movl	8(%rsp), %esi
	je	.L244
	movq	%rax, %r13
	jmp	.L211
.LVL331:
	.p2align 4,,10
	.p2align 3
.L249:
.LBE1417:
.LBE1425:
	.loc 1 973 0
	movl	$.LC37, %edi
.LBB1426:
.LBB1428:
	.loc 2 1665 0
	xorl	%r15d, %r15d
.LVL332:
.LBE1428:
.LBE1426:
	.loc 1 973 0
	call	puts
.LBB1431:
.LBB1429:
	.loc 2 1665 0
	movl	cpuid_stats(%rip), %edi
	movl	$255, %ecx
	movq	%rbp, %rdx
	movl	$.LC32, %esi
	call	sysfs_read_cpu_file
	testl	%eax, %eax
.LVL333:
	je	.L218
	.loc 2 1668 0
	movq	%r15, 40(%rsp)
	movq	$0, after_total_time(%rip)
	movq	%rbp, %r12
	movl	$1, %r14d
.LVL334:
	xorl	%edx, %edx
.LVL335:
	xorl	%esi, %esi
.LVL336:
	movl	%eax, %r15d
	jmp	.L228
.LVL337:
	.p2align 4,,10
	.p2align 3
.L222:
	.loc 2 1697 0
	addq	$1, %r12
	.loc 2 1670 0
	cmpl	%r14d, %r15d
	.loc 2 1697 0
	movq	%rdx, %r13
	leal	1(%r14), %eax
.LVL338:
	.loc 2 1670 0
	jbe	.L247
.LVL339:
.L252:
	movl	%eax, %r14d
	movq	%r13, %rdx
.LVL340:
.L228:
	.loc 2 1668 0
	movl	%r12d, %ecx
	.loc 2 1672 0
	movq	%rbp, %rdi
	.loc 2 1668 0
	subl	%ebp, %ecx
.LVL341:
.L219:
	.loc 2 1672 0
	movl	(%rdi), %r8d
	addq	$4, %rdi
	leal	-16843009(%r8), %eax
	notl	%r8d
	andl	%r8d, %eax
	andl	$-2139062144, %eax
	je	.L219
	movl	%eax, %r8d
	shrl	$16, %r8d
	testl	$32896, %eax
	cmove	%r8d, %eax
	leaq	2(%rdi), %r8
	cmove	%r8, %rdi
	addb	%al, %al
	movq	%r12, %rax
	sbbq	$3, %rdi
	subq	%rbp, %rax
	subq	%rbp, %rdi
	cmpq	%rax, %rdi
	je	.L221
	cmpb	$10, (%r12)
	jne	.L222
.L221:
	.loc 2 1674 0
	subl	%esi, %ecx
.LVL342:
	cmpl	$1, %ecx
	jbe	.L222
	.loc 2 1676 0
	cmpl	$254, %ecx
	.p2align 4,,3
	ja	.L223
	.loc 2 1678 0
	testq	%rdx, %rdx
	.p2align 4,,3
	je	.L224
	.loc 2 1679 0
	movl	$32, %edi
	movq	%rdx, 16(%rsp)
.LVL343:
	movl	%ecx, (%rsp)
	movl	%esi, 8(%rsp)
.LVL344:
	call	malloc
	movq	16(%rsp), %rdx
	.loc 2 1680 0
	testq	%rax, %rax
	.loc 2 1679 0
	movq	%rax, %r13
	.loc 2 1680 0
	movl	(%rsp), %ecx
	movl	8(%rsp), %esi
	.loc 2 1679 0
	movq	%rax, 16(%rdx)
	.loc 2 1680 0
	je	.L223
.L225:
	.loc 2 1689 0
	movq	40(%rsp), %rax
	.loc 2 1692 0
	mov	%esi, %esi
.LVL345:
	mov	%ecx, %ecx
	leaq	(%rbp,%rsi), %rsi
.LVL346:
	movq	%rcx, %rdx
	movq	%rbx, %rdi
	.loc 2 1690 0
	movq	$0, 16(%r13)
	.loc 2 1692 0
	movq	%rcx, (%rsp)
	.loc 2 1689 0
	movq	%rax, 24(%r13)
	.loc 2 1692 0
	call	memcpy
	.loc 2 1693 0
	movq	(%rsp), %rcx
	.loc 2 1694 0
	xorl	%eax, %eax
	movq	%r13, %rdx
	movl	$.LC33, %esi
	movq	%rbx, %rdi
	.loc 2 1693 0
	movb	$0, 320(%rsp,%rcx)
	.loc 2 1694 0
	leaq	8(%r13), %rcx
	call	__isoc99_sscanf
	cmpl	$2, %eax
	jne	.L223
	.loc 2 1697 0
	movq	8(%r13), %rax
	addq	$1, %r12
	addq	%rax, after_total_time(%rip)
	.loc 2 1670 0
	cmpl	%r14d, %r15d
.LVL347:
	.loc 2 1697 0
	movl	%r14d, %esi
	leal	1(%r14), %eax
.LVL348:
	.loc 2 1670 0
	ja	.L252
.LVL349:
.L247:
	movq	40(%rsp), %r15
.LVL350:
.L218:
.LBE1429:
.LBE1431:
	.loc 1 974 0
	addl	$1, 60(%rsp)
	.loc 1 977 0
	movq	%r15, afterStats(%rip)
.LBB1432:
.LBB1433:
	.loc 2 1652 0
	call	T.234
.LVL351:
.LBE1433:
.LBE1432:
	.loc 1 980 0
	movq	after_total_time(%rip), %r8
	subq	before_total_time(%rip), %r8
	.loc 1 981 0
	movq	%rax, %rcx
.LVL352:
	movq	before_total_trans(%rip), %rdx
	movq	afterStats(%rip), %rsi
	movq	beforeStats(%rip), %rdi
	.loc 1 978 0
	movq	%rax, after_total_trans(%rip)
	.loc 1 980 0
	movq	%r8, total_time(%rip)
	.loc 1 981 0
	call	print_cpu_stats
.LVL353:
	jmp	.L216
.LVL354:
	.p2align 4,,10
	.p2align 3
.L224:
.LBB1434:
.LBB1427:
	.loc 2 1684 0
	movl	$32, %edi
	movl	%ecx, (%rsp)
	movl	%esi, 8(%rsp)
.LVL355:
	call	malloc
.LVL356:
	.loc 2 1685 0
	testq	%rax, %rax
	.loc 2 1684 0
	movq	%rax, 40(%rsp)
	.loc 2 1685 0
	movl	(%rsp), %ecx
	movl	8(%rsp), %esi
	je	.L247
	movq	%rax, %r13
	jmp	.L225
.LVL357:
	.p2align 4,,10
	.p2align 3
.L191:
.LBE1427:
.LBE1434:
.LBB1435:
.LBB1254:
	.loc 4 75 0
	leal	-48(%rax), %ecx
	cmpl	$9, %ecx
	ja	.L192
	subl	$47, %eax
.LVL358:
	cltq
	jmp	.L190
.LVL359:
.L248:
.LBE1254:
.LBE1435:
	.loc 1 926 0
	movq	qtdPeriodosCpuStats(%rip), %rcx
.LVL360:
	.p2align 4,,10
	.p2align 3
.L201:
	.loc 1 1004 0
	movl	idTaskCpuStats(%rip), %edx
	movq	qtdDeadlinesVioladosCpuStats(%rip), %r8
	movl	$.LC24, %edi
	movslq	%edx,%rax
	leaq	arrayTextoCorIdTask(,%rax,8), %rsi
	xorl	%eax, %eax
	call	printf
	.loc 1 1006 0
	movl	$.LC38, %edi
	call	puts
	.loc 1 1009 0
	movq	after_total_time(%rip), %r8
	subq	before_total_time(%rip), %r8
	.loc 1 1010 0
	movq	after_total_trans(%rip), %rcx
	movq	before_total_trans(%rip), %rdx
	movq	afterStats(%rip), %rsi
	movq	beforeStats(%rip), %rdi
	.loc 1 1009 0
	movq	%r8, total_time(%rip)
	.loc 1 1010 0
	call	print_cpu_stats
	.loc 1 1013 0
	addq	$952, %rsp
	xorl	%eax, %eax
	popq	%rbx
	popq	%rbp
	popq	%r12
.LVL361:
	popq	%r13
	popq	%r14
	popq	%r15
.LVL362:
	ret
.LVL363:
	.p2align 4,,10
	.p2align 3
.L209:
	movq	40(%rsp), %r15
.LVL364:
.LBB1436:
.LBB1420:
	.loc 2 1705 0
	testq	%r15, %r15
	movq	%r15, %rdi
	jne	.L240
.LVL365:
	jmp	.L204
.LVL366:
	.p2align 4,,10
	.p2align 3
.L215:
	.loc 2 1670 0
	movq	%r12, %rdi
.LVL367:
.L240:
	.loc 2 1706 0
	movq	16(%rdi), %r12
.LVL368:
	.loc 2 1707 0
	call	free
	.loc 2 1705 0
	testq	%r12, %r12
	.p2align 4,,2
	jne	.L215
	xorl	%r15d, %r15d
.LVL369:
	jmp	.L204
.LVL370:
	.p2align 4,,10
	.p2align 3
.L223:
	movq	40(%rsp), %r15
.LVL371:
.LBE1420:
.LBE1436:
.LBB1437:
.LBB1430:
	testq	%r15, %r15
	movq	%r15, %rdi
	jne	.L241
.LVL372:
	.p2align 4,,2
	jmp	.L218
.LVL373:
	.p2align 4,,10
	.p2align 3
.L229:
	.loc 2 1670 0
	movq	%r12, %rdi
.LVL374:
.L241:
	.loc 2 1706 0
	movq	16(%rdi), %r12
.LVL375:
	.loc 2 1707 0
	call	free
	.loc 2 1705 0
	testq	%r12, %r12
	.p2align 4,,2
	jne	.L229
	xorl	%r15d, %r15d
.LVL376:
	jmp	.L218
.LVL377:
	.p2align 4,,10
	.p2align 3
.L192:
.LBE1430:
.LBE1437:
.LBB1438:
.LBB1251:
	.loc 4 78 0
	cmpl	$95, %eax
	setne	%al
.LVL378:
	movzbl	%al, %eax
	addq	$37, %rax
	jmp	.L190
.LVL379:
.L198:
.LBE1251:
.LBE1438:
	.loc 1 909 0
	movq	$0, Task_CpuStats(%rip)
.L233:
	.loc 1 911 0
	movl	$.LC35, %edi
	call	puts
	.loc 1 912 0
	movl	$1, %edi
	call	exit
.LVL380:
	.p2align 4,,10
	.p2align 3
.L188:
.LBB1439:
.LBB1255:
	.loc 4 82 0
	testl	%esi, %esi
	movl	$4294967295, %eax
.LVL381:
	je	.L196
	.p2align 4,,2
	jmp	.L195
.LBE1255:
.LBE1439:
	.cfi_endproc
.LFE186:
	.size	init_task_cpustats, .-init_task_cpustats
	.section	.rodata.str1.1
.LC39:
	.string	"TSKMAT"
	.section	.rodata.str1.8
	.align 8
.LC40:
	.string	"[ERRO] N\303\243o foi poss\303\255vel criar a tarefa MatMult (C-Benchmark)."
	.align 8
.LC41:
	.string	"%s[TASK %d] @@@@@@@@@@@@@@@ ==> DEADLINE VIOLADO!!!!!!!!!!!!! Periodo(%lu) Deadlines_Violados(%lu) \n"
	.text
	.p2align 4,,15
.globl init_task_matmult
	.type	init_task_matmult, @function
init_task_matmult:
.LFB182:
	.loc 1 639 0
	.cfi_startproc
.LVL382:
	pushq	%r15
.LCFI76:
	.cfi_def_cfa_offset 16
	.loc 1 646 0
	movl	$.LC39, %edi
.LVL383:
	xorl	%edx, %edx
.LVL384:
	xorl	%esi, %esi
.LVL385:
	.loc 1 639 0
	pushq	%r14
.LCFI77:
	.cfi_def_cfa_offset 24
	pushq	%r13
.LCFI78:
	.cfi_def_cfa_offset 32
	pushq	%r12
.LCFI79:
	.cfi_def_cfa_offset 40
	pushq	%rbp
.LCFI80:
	.cfi_def_cfa_offset 48
	pushq	%rbx
.LCFI81:
	.cfi_def_cfa_offset 56
	subq	$392, %rsp
.LCFI82:
	.cfi_def_cfa_offset 448
	.loc 1 646 0
	movl	idTaskMatmult(%rip), %ebx
	.cfi_offset 3, -56
	.cfi_offset 6, -48
	.cfi_offset 12, -40
	.cfi_offset 13, -32
	.cfi_offset 14, -24
	.cfi_offset 15, -16
	addl	$1, %ebx
.LVL386:
.L260:
.LBB1496:
.LBB1498:
	.loc 4 69 0
	movsbl	(%rdi),%eax
.LVL387:
	testl	%eax, %eax
	je	.L254
	.loc 4 71 0
	leal	-97(%rax), %ecx
	cmpl	$25, %ecx
	ja	.L255
	subl	$86, %eax
.LVL388:
	cltq
.L256:
	.loc 4 80 0
	leaq	(%rdx,%rdx,4), %rcx
	.loc 4 68 0
	addl	$1, %esi
.LVL389:
	addq	$1, %rdi
	.loc 4 80 0
	salq	$3, %rcx
	subq	%rdx, %rcx
	.loc 4 68 0
	cmpl	$6, %esi
	.loc 4 80 0
	leaq	(%rax,%rcx), %rdx
	.loc 4 68 0
	jne	.L260
.LVL390:
.L261:
.LBE1498:
.LBE1496:
.LBB1501:
.LBB1502:
.LBB1503:
.LBB1504:
	.loc 2 659 0
	movq	%rdx, %rax
	addq	$2, %rax
	jne	.L262
.LBB1505:
.LBB1506:
	.loc 2 653 0
	leaq	320(%rsp), %rdx
.LVL391:
	movl	$1001, %esi
.LVL392:
	movl	$8, %edi
	.loc 2 652 0
	movq	$0, 320(%rsp)
	.loc 2 653 0
	call	T.235
.LVL393:
.L262:
.LBE1506:
.LBE1505:
	.loc 2 663 0
	movl	$1, %edi
	.loc 2 659 0
	movslq	%ebx,%rbp
	movq	%rax, 32(%rsp)
	movq	%rbp, 40(%rsp)
	movq	$0, 48(%rsp)
	movq	$0, 56(%rsp)
	movq	$1, 64(%rsp)
	.loc 2 663 0
	call	sched_get_priority_max
.LVL394:
	subl	%ebx, %eax
	.loc 2 664 0
	movl	$1, %edx
	.loc 2 666 0
	movl	$1, %esi
	.loc 2 664 0
	testl	%eax, %eax
	cmovg	%eax, %edx
	.loc 2 666 0
	xorl	%edi, %edi
	.loc 2 664 0
	movl	%edx, 368(%rsp)
	.loc 2 666 0
	leaq	368(%rsp), %rdx
	call	sched_setscheduler
	testl	%eax, %eax
	js	.L264
	.loc 2 669 0
	movl	$3, %edi
	call	iopl
	.loc 2 670 0
	movl	$3, %edi
	call	mlockall
.LBB1507:
.LBB1508:
.LBB1509:
.LBB1510:
	.loc 3 300 0
	leaq	304(%rsp), %rcx
	leaq	32(%rsp), %rdx
	xorl	%eax, %eax
	movl	$4106280, %esi
	movl	$1879048192, %edi
	call	syscall
	.loc 3 304 0
	movq	304(%rsp), %rax
.LBE1510:
.LBE1509:
.LBE1508:
.LBE1507:
.LBE1504:
.LBE1503:
.LBE1502:
.LBE1501:
	.loc 1 648 0
	testq	%rax, %rax
	movq	%rax, Task_Matmult(%rip)
	je	.L271
	.loc 1 656 0
	movq	tick_period(%rip), %rax
.LBB1511:
.LBB1513:
.LBB1515:
.LBB1517:
.LBB1519:
.LBB1521:
	.loc 3 300 0
	leaq	224(%rsp), %rbx
.LVL395:
	leaq	288(%rsp), %rcx
	movl	$43016, %esi
	movl	$1879048192, %edi
.LBE1521:
.LBE1519:
.LBE1517:
.LBE1515:
.LBE1513:
.LBE1511:
	.loc 1 654 0
	movq	start_timeline(%rip), %r12
.LVL396:
.LBB1527:
.LBB1512:
.LBB1514:
.LBB1516:
.LBB1518:
.LBB1520:
	.loc 3 300 0
	movq	%rbx, %rdx
.LBE1520:
.LBE1518:
.LBE1516:
.LBE1514:
.LBE1512:
.LBE1527:
	.loc 1 656 0
	leaq	(%rax,%rax,4), %rax
	salq	$5, %rax
	movq	%rax, Tperiodo_Matmult(%rip)
.LBB1528:
.LBB1526:
	.loc 2 1146 0
	movq	%rax, 224(%rsp)
.LBB1525:
.LBB1524:
.LBB1523:
.LBB1522:
	.loc 3 300 0
	xorl	%eax, %eax
	call	syscall
.LBE1522:
.LBE1523:
.LBE1524:
.LBE1525:
.LBE1526:
.LBE1528:
	.loc 1 657 0
	cvtsi2sdq	288(%rsp), %xmm0
	divsd	.LC18(%rip), %xmm0
.LBB1529:
.LBB1530:
.LBB1531:
.LBB1532:
.LBB1533:
.LBB1534:
	.loc 3 300 0
	leaq	272(%rsp), %rcx
	leaq	352(%rsp), %rdx
	movl	$4143112, %esi
	movl	$1879048192, %edi
	xorl	%eax, %eax
.LBE1534:
.LBE1533:
.LBE1532:
.LBE1531:
.LBE1530:
.LBE1529:
	.loc 1 657 0
	movsd	%xmm0, 24(%rsp)
.LBB1540:
.LBB1539:
.LBB1538:
.LBB1537:
.LBB1536:
.LBB1535:
	.loc 3 300 0
	call	syscall
.LBE1535:
.LBE1536:
.LBE1537:
.LBE1538:
.LBE1539:
.LBE1540:
.LBB1541:
.LBB1542:
	.loc 2 1052 0
	movq	Task_Matmult(%rip), %rax
.LBB1543:
.LBB1544:
.LBB1545:
.LBB1546:
	.loc 3 300 0
	leaq	256(%rsp), %rcx
	leaq	128(%rsp), %rdx
	movl	$14360, %esi
	movl	$1879048192, %edi
.LBE1546:
.LBE1545:
.LBE1544:
.LBE1543:
	.loc 2 1052 0
	movq	%r12, 136(%rsp)
	movq	%rax, 128(%rsp)
	movq	Tperiodo_Matmult(%rip), %rax
	movq	%rax, 144(%rsp)
.LBB1550:
.LBB1549:
.LBB1548:
.LBB1547:
	.loc 3 300 0
	xorl	%eax, %eax
	call	syscall
.LBE1547:
.LBE1548:
.LBE1549:
.LBE1550:
.LBE1542:
.LBE1541:
.LBB1551:
.LBB1552:
	.loc 2 922 0
	movq	Task_Matmult(%rip), %rax
.LBB1553:
.LBB1554:
.LBB1555:
.LBB1556:
	.loc 3 300 0
	leaq	240(%rsp), %rcx
	leaq	160(%rsp), %rdx
	movl	$145424, %esi
	movl	$1879048192, %edi
.LBE1556:
.LBE1555:
.LBE1554:
.LBE1553:
	.loc 2 922 0
	movq	%rbp, 168(%rsp)
	movq	%rax, 160(%rsp)
.LBB1560:
.LBB1559:
.LBB1558:
.LBB1557:
	.loc 3 300 0
	xorl	%eax, %eax
	call	syscall
.LBE1557:
.LBE1558:
.LBE1559:
.LBE1560:
.LBE1552:
.LBE1551:
	.loc 1 663 0
	movl	idTaskMatmult(%rip), %edx
	movq	Tperiodo_Matmult(%rip), %rcx
	movl	$.LC19, %edi
	movsd	24(%rsp), %xmm0
	movslq	%edx,%rax
	leaq	arrayTextoCorIdTask(,%rax,8), %rsi
	movl	$1, %eax
	call	printf
	.loc 1 668 0
	movl	flagFimExecucao(%rip), %r9d
	testl	%r9d, %r9d
	jne	.L276
	movq	qtdPeriodosMatmult(%rip), %rcx
	leaq	208(%rsp), %r12
.LVL397:
	leaq	192(%rsp), %rbp
	leaq	80(%rsp), %r13
	leaq	176(%rsp), %r14
	leaq	336(%rsp), %r15
	jmp	.L270
.LVL398:
	.p2align 4,,10
	.p2align 3
.L268:
.LBB1561:
.LBB1562:
.LBB1563:
.LBB1564:
.LBB1565:
.LBB1566:
	.loc 3 300 0
	movq	%r14, %rcx
	movl	$18440, %esi
	xorl	%eax, %eax
	movq	%r15, %rdx
	movl	$1879048192, %edi
	call	syscall
.LVL399:
.LBE1566:
.LBE1565:
.LBE1564:
.LBE1563:
.LBE1562:
.LBE1561:
	.loc 1 713 0
	movq	qtdPeriodosMatmult(%rip), %rcx
	.loc 1 668 0
	movl	flagFimExecucao(%rip), %esi
	.loc 1 713 0
	addq	$1, %rcx
	.loc 1 668 0
	testl	%esi, %esi
	.loc 1 713 0
	movq	%rcx, qtdPeriodosMatmult(%rip)
	.loc 1 668 0
	jne	.L267
.L270:
	.loc 1 672 0
	movl	idTaskMatmult(%rip), %edx
	movl	$.LC20, %edi
	movslq	%edx,%rax
	leaq	arrayTextoCorIdTask(,%rax,8), %rsi
	xorl	%eax, %eax
	call	printf
.LBB1567:
.LBB1569:
	.loc 2 1146 0
	movq	Tperiodo_Matmult(%rip), %rax
.LBE1569:
.LBE1567:
	.loc 1 676 0
	movabsq	$6910262639, %rdi
	.loc 1 675 0
	movabsq	$6910262639, %r8
	.loc 1 676 0
	movq	%rdi, RWCEC_Matmult(%rip)
.LBB1584:
.LBB1582:
.LBB1571:
.LBB1573:
.LBB1575:
.LBB1577:
	.loc 3 300 0
	movq	%r12, %rcx
	movq	%rbx, %rdx
	movl	$43016, %esi
	movl	$1879048192, %edi
.LBE1577:
.LBE1575:
.LBE1573:
.LBE1571:
.LBE1582:
.LBE1584:
	.loc 1 675 0
	movq	%r8, WCEC_Matmult(%rip)
.LBB1585:
.LBB1568:
	.loc 2 1146 0
	movq	%rax, 224(%rsp)
.LBB1570:
.LBB1572:
.LBB1574:
.LBB1576:
	.loc 3 300 0
	xorl	%eax, %eax
.LBE1576:
.LBE1574:
.LBE1572:
.LBE1570:
.LBE1568:
.LBE1585:
	.loc 1 677 0
	movq	$0, SEC_Matmult(%rip)
.LBB1586:
.LBB1583:
.LBB1581:
.LBB1580:
.LBB1579:
.LBB1578:
	.loc 3 300 0
	call	syscall
.LBE1578:
.LBE1579:
.LBE1580:
.LBE1581:
.LBE1583:
.LBE1586:
	.loc 1 685 0
	cvtsi2sdq	208(%rsp), %xmm1
	divsd	.LC18(%rip), %xmm1
	movq	WCEC_Matmult(%rip), %rdx
.LBB1587:
.LBB1589:
	.loc 2 1492 0
	mov	cpuFrequencyMin_Matmult(%rip), %esi
	movq	Task_Matmult(%rip), %rdi
.LBE1589:
.LBE1587:
	.loc 1 685 0
	cvtsi2sdq	%rdx, %xmm0
.LBB1608:
.LBB1606:
	.loc 2 1492 0
	movq	%rdx, 88(%rsp)
	movq	%rdi, 80(%rsp)
.LBB1590:
.LBB1592:
.LBB1594:
.LBB1596:
	.loc 3 300 0
	movq	%r13, %rdx
	movl	$1879048192, %edi
.LBE1596:
.LBE1594:
.LBE1592:
.LBE1590:
	.loc 2 1492 0
	movq	%rsi, 96(%rsp)
.LBB1603:
.LBB1601:
.LBB1599:
.LBB1597:
	.loc 3 300 0
	movl	$944168, %esi
.LBE1597:
.LBE1599:
.LBE1601:
.LBE1603:
.LBE1606:
.LBE1608:
	.loc 1 685 0
	divsd	%xmm1, %xmm0
	divsd	.LC22(%rip), %xmm0
	cvttsd2si	%xmm0, %eax
	movl	%eax, %ecx
	sarl	$31, %ecx
	xorl	%ecx, %eax
	subl	%ecx, %eax
.LBB1609:
.LBB1588:
	.loc 2 1492 0
	mov	cpuVoltageInicial_Matmult(%rip), %ecx
.LBE1588:
.LBE1609:
	.loc 1 685 0
	movl	%eax, cpuFrequencyInicial_Matmult(%rip)
.LBB1610:
.LBB1607:
	.loc 2 1492 0
	mov	%eax, %eax
	movq	%rax, 104(%rsp)
.LBB1604:
.LBB1591:
.LBB1593:
.LBB1595:
	.loc 3 300 0
	xorl	%eax, %eax
.LBE1595:
.LBE1593:
.LBE1591:
.LBE1604:
	.loc 2 1492 0
	movq	%rcx, 112(%rsp)
.LBB1605:
.LBB1602:
.LBB1600:
.LBB1598:
	.loc 3 300 0
	movq	%rbp, %rcx
	call	syscall
.LBE1598:
.LBE1600:
.LBE1602:
.LBE1605:
.LBE1607:
.LBE1610:
	.loc 1 694 0
	movl	$ResultArray, %edx
	movl	$ArrayB, %esi
	movl	$ArrayA, %edi
.LBB1611:
.LBB1612:
	.loc 1 635 0
	subq	$33, RWCEC_Matmult(%rip)
	.loc 1 633 0
	movl	$1, SeedMatMult(%rip)
.LBE1612:
.LBE1611:
	.loc 1 694 0
	call	TestMatMult
	.loc 1 698 0
	movq	qtdPeriodosMatmult(%rip), %rdx
	movq	Task_Matmult(%rip), %rsi
	movl	idTaskMatmult(%rip), %edi
	call	getTempoProcessamento
	.loc 1 699 0
	cvtsi2sdq	%rax, %xmm1
.LVL400:
	.loc 1 701 0
	movl	idTaskMatmult(%rip), %edx
	movl	$.LC21, %edi
	movslq	%edx,%rax
.LVL401:
	leaq	arrayTextoCorIdTask(,%rax,8), %rsi
	movl	$1, %eax
	.loc 1 699 0
	divsd	.LC18(%rip), %xmm1
	.loc 1 701 0
	movapd	%xmm1, %xmm0
	movsd	%xmm1, (%rsp)
.LVL402:
	call	printf
	.loc 1 704 0
	movsd	(%rsp), %xmm1
	ucomisd	24(%rsp), %xmm1
.LVL403:
	jbe	.L268
	.loc 1 708 0
	movl	idTaskMatmult(%rip), %edx
	.loc 1 706 0
	movq	qtdDeadlinesVioladosMatmult(%rip), %r8
	.loc 1 708 0
	movl	$.LC41, %edi
	movq	qtdPeriodosMatmult(%rip), %rcx
	movslq	%edx,%rax
	.loc 1 706 0
	addq	$1, %r8
	.loc 1 708 0
	leaq	arrayTextoCorIdTask(,%rax,8), %rsi
	xorl	%eax, %eax
	.loc 1 706 0
	movq	%r8, qtdDeadlinesVioladosMatmult(%rip)
	.loc 1 708 0
	call	printf
.LVL404:
	jmp	.L268
.LVL405:
	.p2align 4,,10
	.p2align 3
.L255:
.LBB1613:
.LBB1499:
	.loc 4 73 0
	leal	-65(%rax), %ecx
	cmpl	$25, %ecx
	ja	.L257
	subl	$54, %eax
.LVL406:
	cltq
	.p2align 4,,3
	jmp	.L256
.LVL407:
	.p2align 4,,10
	.p2align 3
.L257:
	.loc 4 75 0
	leal	-48(%rax), %ecx
	cmpl	$9, %ecx
	ja	.L258
	subl	$47, %eax
.LVL408:
	cltq
	jmp	.L256
.LVL409:
.L276:
.LBE1499:
.LBE1613:
	.loc 1 668 0
	movq	qtdPeriodosMatmult(%rip), %rcx
	.p2align 4,,10
	.p2align 3
.L267:
	.loc 1 716 0
	movl	idTaskMatmult(%rip), %edx
	movq	qtdDeadlinesVioladosMatmult(%rip), %r8
	movl	$.LC24, %edi
	movslq	%edx,%rax
	leaq	arrayTextoCorIdTask(,%rax,8), %rsi
	xorl	%eax, %eax
	call	printf
	.loc 1 719 0
	addq	$392, %rsp
	xorl	%eax, %eax
	popq	%rbx
	popq	%rbp
	popq	%r12
.LVL410:
	popq	%r13
	popq	%r14
	popq	%r15
	ret
.LVL411:
	.p2align 4,,10
	.p2align 3
.L258:
.LBB1614:
.LBB1497:
	.loc 4 78 0
	cmpl	$95, %eax
	setne	%al
.LVL412:
	movzbl	%al, %eax
	addq	$37, %rax
	jmp	.L256
.LVL413:
	.p2align 4,,10
	.p2align 3
.L264:
.LBE1497:
.LBE1614:
	.loc 1 648 0
	movq	$0, Task_Matmult(%rip)
.L271:
	.loc 1 650 0
	movl	$.LC40, %edi
	call	puts
	.loc 1 651 0
	movl	$1, %edi
	call	exit
.LVL414:
	.p2align 4,,10
	.p2align 3
.L254:
.LBB1615:
.LBB1500:
	.loc 4 82 0
	testl	%esi, %esi
	movl	$4294967295, %eax
.LVL415:
	je	.L262
	.p2align 4,,2
	jmp	.L261
.LBE1500:
.LBE1615:
	.cfi_endproc
.LFE182:
	.size	init_task_matmult, .-init_task_matmult
	.section	.rodata.str1.8
	.align 8
.LC42:
	.string	"************** Iniciando escalonamento **************"
	.section	.rodata.str1.1
.LC43:
	.string	"=> [SIM] DEBUG"
.LC44:
	.string	"=> [SIM] RAW MONITOR"
.LC45:
	.string	"=> [SIM] PONTOS DE CONTROLE"
.LC46:
	.string	"=> [NAO] SEC's"
	.section	.rodata.str1.8
	.align 8
.LC47:
	.string	"=> [NAO] CALCULAR FREQUENCIA INICIAL IDEAL (COM BASE NO TEMPO RESTANTE DE PROCESSAMENTO DENTRO DO PERIODO)"
	.align 8
.LC48:
	.string	"TICK_PERIOD ================> %llu\n"
	.text
	.p2align 4,,15
.globl manager_tasks
	.type	manager_tasks, @function
manager_tasks:
.LFB187:
	.loc 1 1019 0
	.cfi_startproc
	pushq	%r12
.LCFI83:
	.cfi_def_cfa_offset 16
.LBB1696:
.LBB1698:
.LBB1700:
.LBB1702:
.LBB1704:
.LBB1706:
	.loc 3 300 0
	movl	$55304, %esi
	movl	$1879048192, %edi
	xorl	%eax, %eax
.LBE1706:
.LBE1704:
.LBE1702:
.LBE1700:
.LBE1698:
.LBE1696:
	.loc 1 1019 0
	pushq	%rbp
.LCFI84:
	.cfi_def_cfa_offset 24
	pushq	%rbx
.LCFI85:
	.cfi_def_cfa_offset 32
	subq	$576, %rsp
.LCFI86:
	.cfi_def_cfa_offset 608
.LBB1712:
.LBB1697:
.LBB1699:
.LBB1701:
.LBB1703:
.LBB1705:
	.loc 3 300 0
	leaq	480(%rsp), %rcx
	leaq	560(%rsp), %rdx
.LBE1705:
.LBE1703:
.LBE1701:
.LBE1699:
.LBE1697:
.LBE1712:
.LBB1713:
.LBB1715:
.LBB1732:
.LBB1734:
.LBB1736:
.LBB1738:
	leaq	528(%rsp), %rbx
	.cfi_offset 3, -32
	.cfi_offset 6, -24
	.cfi_offset 12, -16
.LBE1738:
.LBE1736:
.LBE1734:
.LBE1732:
.LBE1715:
.LBE1713:
.LBB1753:
.LBB1711:
.LBB1710:
.LBB1709:
.LBB1708:
.LBB1707:
	call	syscall
.LBE1707:
.LBE1708:
.LBE1709:
.LBE1710:
.LBE1711:
.LBE1753:
.LBB1754:
.LBB1755:
.LBB1756:
.LBB1757:
.LBB1758:
.LBB1759:
	leaq	464(%rsp), %rcx
	leaq	544(%rsp), %rdx
	movl	$4134920, %esi
	movl	$1879048192, %edi
	xorl	%eax, %eax
	call	syscall
.LBE1759:
.LBE1758:
.LBE1757:
.LBE1756:
.LBE1755:
.LBE1754:
	.loc 1 1023 0
	movl	$.LC42, %edi
	call	puts
	.loc 1 1026 0
	movl	$.LC43, %edi
	call	puts
	.loc 1 1031 0
	movl	$.LC44, %edi
	call	puts
	.loc 1 1036 0
	movl	$.LC45, %edi
	call	puts
	.loc 1 1043 0
	movl	$.LC46, %edi
	call	puts
	.loc 1 1048 0
	movl	$.LC47, %edi
	call	puts
.LBB1760:
.LBB1714:
.LBB1731:
.LBB1733:
.LBB1735:
.LBB1737:
	.loc 3 300 0
	leaq	448(%rsp), %rcx
	xorl	%eax, %eax
	movq	%rbx, %rdx
	movl	$4175880, %esi
	movl	$1879048192, %edi
.LBE1737:
.LBE1735:
.LBE1733:
.LBE1731:
	.loc 2 1090 0
	movq	$0, 528(%rsp)
.LBB1730:
.LBB1741:
.LBB1740:
.LBB1739:
	.loc 3 300 0
	call	syscall
.LBE1739:
.LBE1740:
.LBE1741:
.LBE1730:
	.loc 2 1091 0
	movl	448(%rsp), %r10d
	testl	%r10d, %r10d
	jne	.L309
.LBB1717:
.LBB1719:
.LBB1721:
.LBB1723:
	.loc 3 300 0
	leaq	416(%rsp), %rcx
	movq	%rbx, %rdx
	movl	$30728, %esi
	movl	$1879048192, %edi
	xorl	%eax, %eax
.LBE1723:
.LBE1721:
.LBE1719:
.LBE1717:
	.loc 2 1094 0
	movq	$0, 528(%rsp)
.LBB1716:
.LBB1728:
.LBB1726:
.LBB1724:
	.loc 3 300 0
	call	syscall
.L279:
.LBE1724:
.LBE1726:
.LBE1728:
.LBE1716:
.LBE1714:
.LBE1760:
.LBB1761:
.LBB1762:
.LBB1763:
.LBB1764:
.LBB1765:
.LBB1766:
	leaq	384(%rsp), %rcx
	leaq	512(%rsp), %rdx
	movl	$47112, %esi
	movl	$1879048192, %edi
	xorl	%eax, %eax
.LBE1766:
.LBE1765:
.LBE1764:
.LBE1763:
	.loc 2 1152 0
	movq	$50000000, 512(%rsp)
.LBB1770:
.LBB1769:
.LBB1768:
.LBB1767:
	.loc 3 300 0
	call	syscall
	.loc 3 304 0
	movq	384(%rsp), %rax
.LBE1767:
.LBE1768:
.LBE1769:
.LBE1770:
.LBE1762:
.LBE1761:
.LBB1771:
.LBB1773:
.LBB1775:
.LBB1777:
.LBB1779:
.LBB1781:
	.loc 3 300 0
	leaq	336(%rsp), %rbp
	leaq	368(%rsp), %rcx
	movl	$38920, %esi
	movl	$1879048192, %edi
.LBE1781:
.LBE1779:
.LBE1777:
.LBE1775:
.LBE1773:
.LBE1771:
.LBB1787:
.LBB1790:
	.loc 2 695 0
	leaq	192(%rsp), %rbx
.LBE1790:
.LBE1787:
.LBB1796:
.LBB1772:
.LBB1774:
.LBB1776:
.LBB1778:
.LBB1780:
	.loc 3 300 0
	movq	%rbp, %rdx
.LBE1780:
.LBE1778:
.LBE1776:
.LBE1774:
.LBE1772:
.LBE1796:
	.loc 1 1053 0
	movq	%rax, tick_period(%rip)
	.loc 1 1054 0
	leaq	(%rax,%rax,4), %rax
	salq	$2, %rax
	movq	%rax, delay_start_timeline(%rip)
.LBB1797:
.LBB1786:
.LBB1785:
.LBB1784:
.LBB1783:
.LBB1782:
	.loc 3 300 0
	xorl	%eax, %eax
	call	syscall
	.loc 3 304 0
	movq	368(%rsp), %rax
.LBE1782:
.LBE1783:
.LBE1784:
.LBE1785:
.LBE1786:
.LBE1797:
	.loc 1 1055 0
	addq	delay_start_timeline(%rip), %rax
	.loc 1 1057 0
	movl	$.LC48, %edi
	movq	tick_period(%rip), %rsi
	.loc 1 1055 0
	movq	%rax, start_timeline(%rip)
	.loc 1 1057 0
	xorl	%eax, %eax
	call	printf
.LBB1798:
.LBB1789:
	.loc 2 695 0
	movq	%rbx, %rdi
	call	pthread_attr_init
	.loc 2 696 0
	movl	$65536, %esi
	movq	%rbx, %rdi
	call	pthread_attr_setstacksize
	testl	%eax, %eax
	je	.L310
	.loc 2 708 0
	movq	$0, 360(%rsp)
.LVL416:
	xorl	%eax, %eax
.L284:
.LBE1789:
.LBE1798:
.LBB1799:
.LBB1802:
	.loc 2 695 0
	leaq	128(%rsp), %rbx
.LBE1802:
.LBE1799:
	.loc 1 1059 0
	movq	%rax, Thread_Cnt(%rip)
.LBB1808:
.LBB1801:
	.loc 2 695 0
	movq	%rbx, %rdi
	call	pthread_attr_init
	.loc 2 696 0
	movl	$65536, %esi
	movq	%rbx, %rdi
	call	pthread_attr_setstacksize
	testl	%eax, %eax
	je	.L311
	.loc 2 708 0
	movq	$0, 360(%rsp)
.LVL417:
	xorl	%eax, %eax
.L289:
.LBE1801:
.LBE1808:
.LBB1809:
.LBB1812:
	.loc 2 695 0
	leaq	64(%rsp), %rbx
.LBE1812:
.LBE1809:
	.loc 1 1060 0
	movq	%rax, Thread_Matmult(%rip)
.LBB1820:
.LBB1817:
	.loc 2 695 0
	movq	%rbx, %rdi
	call	pthread_attr_init
	.loc 2 696 0
	movl	$65536, %esi
	movq	%rbx, %rdi
	call	pthread_attr_setstacksize
	testl	%eax, %eax
	je	.L312
	.loc 2 708 0
	movq	$0, 360(%rsp)
.LVL418:
	xorl	%eax, %eax
.L294:
.LBE1817:
.LBE1820:
.LBB1821:
.LBB1824:
	.loc 2 695 0
	movq	%rsp, %rdi
.LBE1824:
.LBE1821:
	.loc 1 1061 0
	movq	%rax, Thread_Bsort(%rip)
.LBB1830:
.LBB1823:
	.loc 2 695 0
	call	pthread_attr_init
	.loc 2 696 0
	movl	$65536, %esi
	movq	%rsp, %rdi
	call	pthread_attr_setstacksize
	testl	%eax, %eax
	je	.L313
	.loc 2 708 0
	movq	$0, 360(%rsp)
.LVL419:
	xorl	%eax, %eax
.L299:
.LBE1823:
.LBE1830:
.LBB1831:
.LBB1832:
.LBB1833:
.LBB1834:
.LBB1835:
.LBB1836:
	.loc 3 300 0
	leaq	320(%rsp), %rcx
.LBE1836:
.LBE1835:
.LBE1834:
.LBE1833:
.LBE1832:
.LBE1831:
	.loc 1 1062 0
	movq	%rax, Thread_CpuStats(%rip)
.LBB1842:
.LBB1841:
.LBB1840:
.LBB1839:
.LBB1838:
.LBB1837:
	.loc 3 300 0
	movq	%rbp, %rdx
	movl	$38920, %esi
	movl	$1879048192, %edi
	xorl	%eax, %eax
	call	syscall
	.loc 3 304 0
	movq	320(%rsp), %rax
.LBE1837:
.LBE1838:
.LBE1839:
.LBE1840:
.LBE1841:
.LBE1842:
	.loc 1 1065 0
	movq	%rax, timerInicioExperimento(%rip)
	.p2align 4,,10
	.p2align 3
.L300:
.LBB1843:
.LBB1844:
	.file 5 "/usr/include/bits/stdio.h"
	.loc 5 47 0
	movq	stdin(%rip), %rdi
	call	_IO_getc
.LBE1844:
.LBE1843:
	.loc 1 1068 0
	testl	%eax, %eax
	je	.L300
.LBB1845:
.LBB1847:
.LBB1858:
.LBB1860:
.LBB1862:
.LBB1864:
	.loc 3 300 0
	leaq	496(%rsp), %rbx
	leaq	304(%rsp), %rcx
	xorl	%eax, %eax
	movl	$4175880, %esi
	movl	$1879048192, %edi
.LBE1864:
.LBE1862:
.LBE1860:
.LBE1858:
.LBE1847:
.LBE1845:
	.loc 1 1069 0
	movl	$1, flagFimExecucao(%rip)
.LBB1873:
.LBB1846:
.LBB1857:
.LBB1859:
.LBB1861:
.LBB1863:
	.loc 3 300 0
	movq	%rbx, %rdx
.LBE1863:
.LBE1861:
.LBE1859:
.LBE1857:
	.loc 2 1104 0
	movq	$0, 496(%rsp)
.LBB1856:
.LBB1867:
.LBB1866:
.LBB1865:
	.loc 3 300 0
	call	syscall
	.loc 3 304 0
	movq	304(%rsp), %rax
.LBE1865:
.LBE1866:
.LBE1867:
.LBE1856:
	.loc 2 1105 0
	testq	%rax, %rax
	movq	%rax, 496(%rsp)
	jne	.L314
.L301:
.LBB1852:
.LBB1853:
.LBB1854:
.LBB1855:
	.loc 3 300 0
	leaq	272(%rsp), %rcx
	xorl	%eax, %eax
	movq	%rbx, %rdx
	movl	$34824, %esi
	movl	$1879048192, %edi
	call	syscall
.LBE1855:
.LBE1854:
.LBE1853:
.LBE1852:
	.loc 2 1109 0
	cmpq	$0, 496(%rsp)
	je	.L302
.LBB1848:
.LBB1849:
.LBB1850:
.LBB1851:
	.loc 3 300 0
	leaq	256(%rsp), %rcx
	movq	%rbx, %rdx
	movl	$4134920, %esi
	movl	$1879048192, %edi
	xorl	%eax, %eax
	call	syscall
.L302:
.LBE1851:
.LBE1850:
.LBE1849:
.LBE1848:
.LBE1846:
.LBE1873:
	.loc 1 1073 0
	addq	$576, %rsp
	xorl	%eax, %eax
	popq	%rbx
	popq	%rbp
	popq	%r12
	ret
	.p2align 4,,10
	.p2align 3
.L314:
.LBB1874:
.LBB1872:
.LBB1868:
.LBB1869:
.LBB1870:
.LBB1871:
	.loc 3 300 0
	leaq	288(%rsp), %rcx
	movq	%rbx, %rdx
	movl	$4130824, %esi
	movl	$1879048192, %edi
	xorl	%eax, %eax
	call	syscall
	jmp	.L301
.LVL420:
	.p2align 4,,10
	.p2align 3
.L313:
.LBE1871:
.LBE1870:
.LBE1869:
.LBE1868:
.LBE1872:
.LBE1874:
.LBB1875:
.LBB1828:
.LBB1826:
	.loc 2 698 0
	leaq	352(%rsp), %r12
	movl	$1019, %esi
	movl	$8, %edi
	.loc 2 697 0
	movq	$0, 352(%rsp)
	.loc 2 698 0
	movq	%r12, %rdx
	call	T.235
	testq	%rax, %rax
	movq	%rax, 352(%rsp)
	jne	.L315
.L296:
	.loc 2 701 0
	leaq	360(%rsp), %rdi
	xorl	%ecx, %ecx
	movl	$init_task_cpustats, %edx
	movq	%rsp, %rsi
	call	pthread_create
	testl	%eax, %eax
	jne	.L316
.LVL421:
.L297:
	.loc 2 704 0
	cmpq	$0, 352(%rsp)
	jne	.L298
.L308:
	.loc 2 705 0
	movq	360(%rsp), %rax
	jmp	.L299
.LVL422:
	.p2align 4,,10
	.p2align 3
.L312:
.LBE1826:
.LBE1828:
.LBE1875:
.LBB1876:
.LBB1811:
.LBB1814:
	.loc 2 698 0
	leaq	352(%rsp), %r12
	movl	$1019, %esi
	movl	$8, %edi
	.loc 2 697 0
	movq	$0, 352(%rsp)
	.loc 2 698 0
	movq	%r12, %rdx
	call	T.235
	testq	%rax, %rax
	movq	%rax, 352(%rsp)
	jne	.L317
.L291:
	.loc 2 701 0
	leaq	360(%rsp), %rdi
	xorl	%ecx, %ecx
	movl	$init_task_bsort, %edx
	movq	%rbx, %rsi
	call	pthread_create
	testl	%eax, %eax
	jne	.L318
.LVL423:
.L292:
	.loc 2 704 0
	cmpq	$0, 352(%rsp)
	jne	.L293
.L307:
	.loc 2 705 0
	movq	360(%rsp), %rax
	jmp	.L294
.LVL424:
	.p2align 4,,10
	.p2align 3
.L311:
.LBE1814:
.LBE1811:
.LBE1876:
.LBB1877:
.LBB1806:
.LBB1804:
	.loc 2 698 0
	leaq	352(%rsp), %r12
	movl	$1019, %esi
	movl	$8, %edi
	.loc 2 697 0
	movq	$0, 352(%rsp)
	.loc 2 698 0
	movq	%r12, %rdx
	call	T.235
	testq	%rax, %rax
	movq	%rax, 352(%rsp)
	jne	.L319
.L286:
	.loc 2 701 0
	leaq	360(%rsp), %rdi
	xorl	%ecx, %ecx
	movl	$init_task_matmult, %edx
	movq	%rbx, %rsi
	call	pthread_create
	testl	%eax, %eax
	jne	.L320
.LVL425:
.L287:
	.loc 2 704 0
	cmpq	$0, 352(%rsp)
	jne	.L288
.L306:
	.loc 2 705 0
	movq	360(%rsp), %rax
	jmp	.L289
.LVL426:
	.p2align 4,,10
	.p2align 3
.L310:
.LBE1804:
.LBE1806:
.LBE1877:
.LBB1878:
.LBB1794:
.LBB1792:
	.loc 2 698 0
	leaq	352(%rsp), %r12
	movl	$1019, %esi
	movl	$8, %edi
	.loc 2 697 0
	movq	$0, 352(%rsp)
	.loc 2 698 0
	movq	%r12, %rdx
	call	T.235
	testq	%rax, %rax
	movq	%rax, 352(%rsp)
	jne	.L321
.L281:
	.loc 2 701 0
	leaq	360(%rsp), %rdi
	xorl	%ecx, %ecx
	movl	$init_task_cnt, %edx
	movq	%rbx, %rsi
	call	pthread_create
	testl	%eax, %eax
	jne	.L322
.LVL427:
.L282:
	.loc 2 704 0
	cmpq	$0, 352(%rsp)
	jne	.L283
.L305:
	.loc 2 705 0
	movq	360(%rsp), %rax
	jmp	.L284
.LVL428:
	.p2align 4,,10
	.p2align 3
.L309:
.LBE1792:
.LBE1794:
.LBE1878:
.LBB1879:
.LBB1752:
.LBB1742:
.LBB1743:
.LBB1744:
.LBB1745:
	.loc 3 300 0
	leaq	432(%rsp), %rcx
	movq	%rbx, %rdx
	movl	$4130824, %esi
	movl	$1879048192, %edi
	xorl	%eax, %eax
	call	syscall
.LBE1745:
.LBE1744:
.LBE1743:
.LBE1742:
.LBB1746:
.LBB1718:
.LBB1720:
.LBB1722:
	leaq	416(%rsp), %rcx
	movq	%rbx, %rdx
	movl	$30728, %esi
	movl	$1879048192, %edi
	xorl	%eax, %eax
.LBE1722:
.LBE1720:
.LBE1718:
.LBE1746:
	.loc 2 1094 0
	movq	$0, 528(%rsp)
.LBB1747:
.LBB1729:
.LBB1727:
.LBB1725:
	.loc 3 300 0
	call	syscall
.LBE1725:
.LBE1727:
.LBE1729:
.LBE1747:
.LBB1748:
.LBB1749:
.LBB1750:
.LBB1751:
	leaq	400(%rsp), %rcx
	movq	%rbx, %rdx
	movl	$4134920, %esi
	movl	$1879048192, %edi
	xorl	%eax, %eax
	call	syscall
	jmp	.L279
	.p2align 4,,10
	.p2align 3
.L322:
.LBE1751:
.LBE1750:
.LBE1749:
.LBE1748:
.LBE1752:
.LBE1879:
.LBB1880:
.LBB1788:
.LBB1791:
	.loc 2 702 0
	movq	$0, 360(%rsp)
.LVL429:
	jmp	.L282
	.p2align 4,,10
	.p2align 3
.L320:
.LBE1791:
.LBE1788:
.LBE1880:
.LBB1881:
.LBB1800:
.LBB1803:
	movq	$0, 360(%rsp)
.LVL430:
	jmp	.L287
	.p2align 4,,10
	.p2align 3
.L318:
.LBE1803:
.LBE1800:
.LBE1881:
.LBB1882:
.LBB1818:
.LBB1815:
	movq	$0, 360(%rsp)
.LVL431:
	jmp	.L292
	.p2align 4,,10
	.p2align 3
.L316:
.LBE1815:
.LBE1818:
.LBE1882:
.LBB1883:
.LBB1822:
.LBB1825:
	movq	$0, 360(%rsp)
.LVL432:
	jmp	.L297
.LVL433:
	.p2align 4,,10
	.p2align 3
.L317:
.LBE1825:
.LBE1822:
.LBE1883:
.LBB1884:
.LBB1810:
.LBB1813:
	.loc 2 699 0
	movq	%r12, %rdx
	movl	$1008, %esi
	movl	$8, %edi
	call	T.235
	jmp	.L291
.LVL434:
	.p2align 4,,10
	.p2align 3
.L298:
.LBE1813:
.LBE1810:
.LBE1884:
.LBB1885:
.LBB1829:
.LBB1827:
	.loc 2 705 0
	movq	%r12, %rdx
	movl	$1009, %esi
	movl	$8, %edi
	call	T.235
	.p2align 4,,2
	jmp	.L308
.LVL435:
	.p2align 4,,10
	.p2align 3
.L315:
	.loc 2 699 0
	movq	%r12, %rdx
	movl	$1008, %esi
	movl	$8, %edi
	call	T.235
	.p2align 4,,2
	jmp	.L296
.LVL436:
	.p2align 4,,10
	.p2align 3
.L283:
.LBE1827:
.LBE1829:
.LBE1885:
.LBB1886:
.LBB1795:
.LBB1793:
	.loc 2 705 0
	movq	%r12, %rdx
	movl	$1009, %esi
	movl	$8, %edi
	call	T.235
	.p2align 4,,2
	jmp	.L305
.LVL437:
	.p2align 4,,10
	.p2align 3
.L321:
	.loc 2 699 0
	movq	%r12, %rdx
	movl	$1008, %esi
	movl	$8, %edi
	call	T.235
	.p2align 4,,2
	jmp	.L281
.LVL438:
	.p2align 4,,10
	.p2align 3
.L288:
.LBE1793:
.LBE1795:
.LBE1886:
.LBB1887:
.LBB1807:
.LBB1805:
	.loc 2 705 0
	movq	%r12, %rdx
	movl	$1009, %esi
	movl	$8, %edi
	call	T.235
	.p2align 4,,2
	jmp	.L306
.LVL439:
	.p2align 4,,10
	.p2align 3
.L319:
	.loc 2 699 0
	movq	%r12, %rdx
	movl	$1008, %esi
	movl	$8, %edi
	call	T.235
	.p2align 4,,2
	jmp	.L286
.LVL440:
	.p2align 4,,10
	.p2align 3
.L293:
.LBE1805:
.LBE1807:
.LBE1887:
.LBB1888:
.LBB1819:
.LBB1816:
	.loc 2 705 0
	movq	%r12, %rdx
	movl	$1009, %esi
	movl	$8, %edi
	call	T.235
	.p2align 4,,2
	jmp	.L307
.LBE1816:
.LBE1819:
.LBE1888:
	.cfi_endproc
.LFE187:
	.size	manager_tasks, .-manager_tasks
	.section	.rodata.str1.8
	.align 8
.LC49:
	.string	"\n\nIniciando o escalonamento das tarefas...\n"
	.section	.rodata.str1.1
.LC50:
	.string	"\n\nFim do Escalonamento %s\n"
	.text
	.p2align 4,,15
.globl main
	.type	main, @function
main:
.LFB189:
	.loc 1 1086 0
	.cfi_startproc
	subq	$8, %rsp
.LCFI87:
	.cfi_def_cfa_offset 16
	.loc 1 1087 0
	movl	$.LC49, %edi
	call	puts
	.loc 1 1089 0
	call	manager_tasks
	.loc 1 1091 0
	call	delete_tasks
	.loc 1 1093 0
	movl	$texto_branco, %esi
	movl	$.LC50, %edi
	xorl	%eax, %eax
	call	printf
	.loc 1 1096 0
	xorl	%eax, %eax
	addq	$8, %rsp
	ret
	.cfi_endproc
.LFE189:
	.size	main, .-main
.globl texto_preto
	.data
	.type	texto_preto, @object
	.size	texto_preto, 8
texto_preto:
	.string	"\033[30m"
	.zero	2
.globl texto_vermelho
	.type	texto_vermelho, @object
	.size	texto_vermelho, 8
texto_vermelho:
	.string	"\033[31m"
	.zero	2
.globl texto_verde
	.type	texto_verde, @object
	.size	texto_verde, 8
texto_verde:
	.string	"\033[32m"
	.zero	2
.globl texto_laranja
	.type	texto_laranja, @object
	.size	texto_laranja, 8
texto_laranja:
	.string	"\033[33m"
	.zero	2
.globl texto_azul
	.type	texto_azul, @object
	.size	texto_azul, 8
texto_azul:
	.string	"\033[34m"
	.zero	2
.globl texto_magenta
	.type	texto_magenta, @object
	.size	texto_magenta, 8
texto_magenta:
	.string	"\033[35m"
	.zero	2
.globl texto_ciano
	.type	texto_ciano, @object
	.size	texto_ciano, 8
texto_ciano:
	.string	"\033[36m"
	.zero	2
.globl texto_branco
	.type	texto_branco, @object
	.size	texto_branco, 8
texto_branco:
	.string	"\033[37m"
	.zero	2
.globl fundo_preto
	.type	fundo_preto, @object
	.size	fundo_preto, 8
fundo_preto:
	.string	"\033[40m"
	.zero	2
.globl fundo_vermelho
	.type	fundo_vermelho, @object
	.size	fundo_vermelho, 8
fundo_vermelho:
	.string	"\033[41m"
	.zero	2
.globl fundo_verde
	.type	fundo_verde, @object
	.size	fundo_verde, 8
fundo_verde:
	.string	"\033[42m"
	.zero	2
.globl fundo_laranja
	.type	fundo_laranja, @object
	.size	fundo_laranja, 8
fundo_laranja:
	.string	"\033[43m"
	.zero	2
.globl fundo_azul
	.type	fundo_azul, @object
	.size	fundo_azul, 8
fundo_azul:
	.string	"\033[44m"
	.zero	2
.globl fundo_magenta
	.type	fundo_magenta, @object
	.size	fundo_magenta, 8
fundo_magenta:
	.string	"\033[45m"
	.zero	2
.globl fundo_ciano
	.type	fundo_ciano, @object
	.size	fundo_ciano, 8
fundo_ciano:
	.string	"\033[46m"
	.zero	2
.globl fundo_branco
	.type	fundo_branco, @object
	.size	fundo_branco, 8
fundo_branco:
	.string	"\033[47m"
	.zero	2
.globl arrayTextoCorIdTask
	.align 32
	.type	arrayTextoCorIdTask, @object
	.size	arrayTextoCorIdTask, 32
arrayTextoCorIdTask:
	.string	"\033[31m"
	.zero	2
	.string	"\033[32m"
	.zero	2
	.string	"\033[37m"
	.zero	2
	.string	"\033[36m"
	.zero	2
.globl timerInicioExperimento
	.bss
	.align 8
	.type	timerInicioExperimento, @object
	.size	timerInicioExperimento, 8
timerInicioExperimento:
	.zero	8
.globl timerTerminoExperimento
	.align 8
	.type	timerTerminoExperimento, @object
	.size	timerTerminoExperimento, 8
timerTerminoExperimento:
	.zero	8
.globl tempoTotalExperimento
	.align 8
	.type	tempoTotalExperimento, @object
	.size	tempoTotalExperimento, 8
tempoTotalExperimento:
	.zero	8
.globl cpuid_stats
	.align 4
	.type	cpuid_stats, @object
	.size	cpuid_stats, 4
cpuid_stats:
	.zero	4
.globl idTaskCnt
	.align 4
	.type	idTaskCnt, @object
	.size	idTaskCnt, 4
idTaskCnt:
	.zero	4
.globl qtdPeriodosCnt
	.data
	.align 8
	.type	qtdPeriodosCnt, @object
	.size	qtdPeriodosCnt, 8
qtdPeriodosCnt:
	.quad	1
.globl qtdDeadlinesVioladosCnt
	.bss
	.align 8
	.type	qtdDeadlinesVioladosCnt, @object
	.size	qtdDeadlinesVioladosCnt, 8
qtdDeadlinesVioladosCnt:
	.zero	8
.globl qtdMaxPeriodosCnt
	.data
	.align 4
	.type	qtdMaxPeriodosCnt, @object
	.size	qtdMaxPeriodosCnt, 4
qtdMaxPeriodosCnt:
	.long	24
.globl WCEC_Cnt
	.align 8
	.type	WCEC_Cnt, @object
	.size	WCEC_Cnt, 8
WCEC_Cnt:
	.quad	1421126000
.globl RWCEC_Cnt
	.align 8
	.type	RWCEC_Cnt, @object
	.size	RWCEC_Cnt, 8
RWCEC_Cnt:
	.quad	1421126000
.globl SEC_Cnt
	.bss
	.align 8
	.type	SEC_Cnt, @object
	.size	SEC_Cnt, 8
SEC_Cnt:
	.zero	8
.globl Tperiodo_Cnt
	.align 8
	.type	Tperiodo_Cnt, @object
	.size	Tperiodo_Cnt, 8
Tperiodo_Cnt:
	.zero	8
.globl cpuFrequencyAtual_Cnt
	.align 4
	.type	cpuFrequencyAtual_Cnt, @object
	.size	cpuFrequencyAtual_Cnt, 4
cpuFrequencyAtual_Cnt:
	.zero	4
.globl cpuFrequencyMin_Cnt
	.data
	.align 4
	.type	cpuFrequencyMin_Cnt, @object
	.size	cpuFrequencyMin_Cnt, 4
cpuFrequencyMin_Cnt:
	.long	1800000
.globl cpuFrequencyInicial_Cnt
	.align 4
	.type	cpuFrequencyInicial_Cnt, @object
	.size	cpuFrequencyInicial_Cnt, 4
cpuFrequencyInicial_Cnt:
	.long	1800000
.globl cpuVoltageInicial_Cnt
	.align 4
	.type	cpuVoltageInicial_Cnt, @object
	.size	cpuVoltageInicial_Cnt, 4
cpuVoltageInicial_Cnt:
	.long	5
.globl idTaskMatmult
	.align 4
	.type	idTaskMatmult, @object
	.size	idTaskMatmult, 4
idTaskMatmult:
	.long	1
.globl qtdPeriodosMatmult
	.align 8
	.type	qtdPeriodosMatmult, @object
	.size	qtdPeriodosMatmult, 8
qtdPeriodosMatmult:
	.quad	1
.globl qtdDeadlinesVioladosMatmult
	.bss
	.align 8
	.type	qtdDeadlinesVioladosMatmult, @object
	.size	qtdDeadlinesVioladosMatmult, 8
qtdDeadlinesVioladosMatmult:
	.zero	8
.globl qtdMaxPeriodosMatmult
	.data
	.align 4
	.type	qtdMaxPeriodosMatmult, @object
	.size	qtdMaxPeriodosMatmult, 4
qtdMaxPeriodosMatmult:
	.long	27
.globl WCEC_Matmult
	.align 8
	.type	WCEC_Matmult, @object
	.size	WCEC_Matmult, 8
WCEC_Matmult:
	.quad	6910262639
.globl RWCEC_Matmult
	.align 8
	.type	RWCEC_Matmult, @object
	.size	RWCEC_Matmult, 8
RWCEC_Matmult:
	.quad	6910262639
.globl SEC_Matmult
	.bss
	.align 8
	.type	SEC_Matmult, @object
	.size	SEC_Matmult, 8
SEC_Matmult:
	.zero	8
.globl Tperiodo_Matmult
	.align 8
	.type	Tperiodo_Matmult, @object
	.size	Tperiodo_Matmult, 8
Tperiodo_Matmult:
	.zero	8
.globl cpuFrequencyAtual_Matmult
	.align 4
	.type	cpuFrequencyAtual_Matmult, @object
	.size	cpuFrequencyAtual_Matmult, 4
cpuFrequencyAtual_Matmult:
	.zero	4
.globl cpuFrequencyMin_Matmult
	.data
	.align 4
	.type	cpuFrequencyMin_Matmult, @object
	.size	cpuFrequencyMin_Matmult, 4
cpuFrequencyMin_Matmult:
	.long	800000
.globl cpuFrequencyInicial_Matmult
	.align 4
	.type	cpuFrequencyInicial_Matmult, @object
	.size	cpuFrequencyInicial_Matmult, 4
cpuFrequencyInicial_Matmult:
	.long	3000000
.globl cpuVoltageInicial_Matmult
	.align 4
	.type	cpuVoltageInicial_Matmult, @object
	.size	cpuVoltageInicial_Matmult, 4
cpuVoltageInicial_Matmult:
	.long	5
.globl idTaskBsort
	.align 4
	.type	idTaskBsort, @object
	.size	idTaskBsort, 4
idTaskBsort:
	.long	2
.globl qtdPeriodosBsort
	.align 8
	.type	qtdPeriodosBsort, @object
	.size	qtdPeriodosBsort, 8
qtdPeriodosBsort:
	.quad	1
.globl qtdDeadlinesVioladosBsort
	.bss
	.align 8
	.type	qtdDeadlinesVioladosBsort, @object
	.size	qtdDeadlinesVioladosBsort, 8
qtdDeadlinesVioladosBsort:
	.zero	8
.globl qtdMaxPeriodosBsort
	.data
	.align 4
	.type	qtdMaxPeriodosBsort, @object
	.size	qtdMaxPeriodosBsort, 4
qtdMaxPeriodosBsort:
	.long	24
.globl WCEC_Bsort
	.align 8
	.type	WCEC_Bsort, @object
	.size	WCEC_Bsort, 8
WCEC_Bsort:
	.quad	3000210009
.globl RWCEC_Bsort
	.align 8
	.type	RWCEC_Bsort, @object
	.size	RWCEC_Bsort, 8
RWCEC_Bsort:
	.quad	3000210009
.globl SEC_Bsort
	.bss
	.align 8
	.type	SEC_Bsort, @object
	.size	SEC_Bsort, 8
SEC_Bsort:
	.zero	8
.globl Tperiodo_Bsort
	.align 8
	.type	Tperiodo_Bsort, @object
	.size	Tperiodo_Bsort, 8
Tperiodo_Bsort:
	.zero	8
.globl cpuFrequencyAtual_Bsort
	.align 4
	.type	cpuFrequencyAtual_Bsort, @object
	.size	cpuFrequencyAtual_Bsort, 4
cpuFrequencyAtual_Bsort:
	.zero	4
.globl cpuFrequencyMin_Bsort
	.data
	.align 4
	.type	cpuFrequencyMin_Bsort, @object
	.size	cpuFrequencyMin_Bsort, 4
cpuFrequencyMin_Bsort:
	.long	1800000
.globl cpuFrequencyInicial_Bsort
	.align 4
	.type	cpuFrequencyInicial_Bsort, @object
	.size	cpuFrequencyInicial_Bsort, 4
cpuFrequencyInicial_Bsort:
	.long	1800000
.globl cpuVoltageInicial_Bsort
	.align 4
	.type	cpuVoltageInicial_Bsort, @object
	.size	cpuVoltageInicial_Bsort, 4
cpuVoltageInicial_Bsort:
	.long	5
.globl idTaskCpuStats
	.align 4
	.type	idTaskCpuStats, @object
	.size	idTaskCpuStats, 4
idTaskCpuStats:
	.long	3
.globl qtdPeriodosCpuStats
	.align 8
	.type	qtdPeriodosCpuStats, @object
	.size	qtdPeriodosCpuStats, 8
qtdPeriodosCpuStats:
	.quad	1
.globl qtdDeadlinesVioladosCpuStats
	.bss
	.align 8
	.type	qtdDeadlinesVioladosCpuStats, @object
	.size	qtdDeadlinesVioladosCpuStats, 8
qtdDeadlinesVioladosCpuStats:
	.zero	8
.globl WCEC_CpuStats
	.align 8
	.type	WCEC_CpuStats, @object
	.size	WCEC_CpuStats, 8
WCEC_CpuStats:
	.zero	8
.globl RWCEC_CpuStats
	.align 8
	.type	RWCEC_CpuStats, @object
	.size	RWCEC_CpuStats, 8
RWCEC_CpuStats:
	.zero	8
.globl SEC_CpuStats
	.align 8
	.type	SEC_CpuStats, @object
	.size	SEC_CpuStats, 8
SEC_CpuStats:
	.zero	8
.globl Tperiodo_CpuStats
	.align 8
	.type	Tperiodo_CpuStats, @object
	.size	Tperiodo_CpuStats, 8
Tperiodo_CpuStats:
	.zero	8
.globl cpuFrequencyAtual_CpuStats
	.align 4
	.type	cpuFrequencyAtual_CpuStats, @object
	.size	cpuFrequencyAtual_CpuStats, 4
cpuFrequencyAtual_CpuStats:
	.zero	4
.globl cpuFrequencyMin_CpuStats
	.data
	.align 4
	.type	cpuFrequencyMin_CpuStats, @object
	.size	cpuFrequencyMin_CpuStats, 4
cpuFrequencyMin_CpuStats:
	.long	800000
.globl cpuFrequencyInicial_CpuStats
	.align 4
	.type	cpuFrequencyInicial_CpuStats, @object
	.size	cpuFrequencyInicial_CpuStats, 4
cpuFrequencyInicial_CpuStats:
	.long	800000
.globl cpuVoltageInicial_CpuStats
	.align 4
	.type	cpuVoltageInicial_CpuStats, @object
	.size	cpuVoltageInicial_CpuStats, 4
cpuVoltageInicial_CpuStats:
	.long	5
.globl flagFimExecucao
	.bss
	.align 4
	.type	flagFimExecucao, @object
	.size	flagFimExecucao, 4
flagFimExecucao:
	.zero	4
	.comm	total_time,8,8
	.comm	before_total_time,8,8
	.comm	after_total_time,8,8
	.comm	beforeStats,8,8
	.comm	afterStats,8,8
	.comm	before_total_trans,8,8
	.comm	after_total_trans,8,8
	.comm	Task_Cnt,8,8
	.comm	Thread_Cnt,8,8
	.comm	Task_Matmult,8,8
	.comm	Thread_Matmult,8,8
	.comm	Task_Bsort,8,8
	.comm	Thread_Bsort,8,8
	.comm	Task_CpuStats,8,8
	.comm	Thread_CpuStats,8,8
	.comm	tick_period,8,8
	.comm	start_timeline,8,8
	.comm	delay_start_timeline,8,8
	.comm	Array,196000000,32
	.comm	SeedCnt,4,4
	.comm	Postotal,8,8
	.comm	Negtotal,8,8
	.comm	Poscnt,8,8
	.comm	Negcnt,8,8
	.comm	SeedMatMult,4,4
	.comm	ArrayA,2371600,32
	.comm	ArrayB,2371600,32
	.comm	ResultArray,2371600,32
	.comm	ArrayBsort,40004,32
	.comm	Seed,4,4
	.comm	factor,4,4
	.section	.rodata.cst8,"aM",@progbits,8
	.align 8
.LC7:
	.long	0
	.long	1079574528
	.align 8
.LC18:
	.long	0
	.long	1104006501
	.align 8
.LC22:
	.long	0
	.long	1083129856
	.align 8
.LC25:
	.long	0
	.long	0
	.align 8
.LC26:
	.long	0
	.long	1072693248
	.text
.Letext0:
	.section	.note.GNU-stack,"",@progbits
