	.file	"cnt_uncrustify.c"
	.text
.Ltext0:
	.cfi_sections	.debug_frame
	.comm	Seed,4,4
	.comm	Array,196000000,32
	.comm	Postotal,4,4
	.comm	Negtotal,4,4
	.comm	Poscnt,4,4
	.comm	Negcnt,4,4
	.section	.rodata
	.align 4
.LC0:
	.string	"\n   *** MATRIX MULTIPLICATION BENCHMARK TEST ***\n"
.LC1:
	.string	"RESULTS OF THE TEST:"
	.align 4
.LC3:
	.string	"    - Size of array is %d (%ld CLOCKS_PER_SEC)\n"
	.align 4
.LC4:
	.string	"    - Num pos was %d and Sum was %lld\n"
	.align 4
.LC5:
	.string	"    - Num neg was %d and Sum was %lld\n"
	.align 4
.LC6:
	.string	"    - Total multiplication time is %3.3f seconds\n\n"
	.text
.globl main
	.type	main, @function
main:
.LFB0:
	.file 1 "output/cnt_uncrustify.c"
	.loc 1 38 0
	.cfi_startproc
	pushl	%ebp
.LCFI0:
	.cfi_def_cfa_offset 8
	movl	%esp, %ebp
	.cfi_offset 5, -8
.LCFI1:
	.cfi_def_cfa_register 5
	andl	$-16, %esp
	pushl	%edi
	pushl	%esi
	pushl	%ebx
	subl	$84, %esp
	.loc 1 41 0
	movl	$0, 60(%esp)
	.loc 1 42 0
	movl	$0, 64(%esp)
	.loc 1 43 0
	movl	$0, 68(%esp)
	.loc 1 44 0
	movl	$0, 72(%esp)
	.loc 1 46 0
	.cfi_escape 0x10,0x3,0x7,0x55,0x9,0xf0,0x1a,0x9,0xf4,0x22
	.cfi_escape 0x10,0x6,0x7,0x55,0x9,0xf0,0x1a,0x9,0xf8,0x22
	.cfi_escape 0x10,0x7,0x7,0x55,0x9,0xf0,0x1a,0x9,0xfc,0x22
	call	InitSeed
	.loc 1 49 0
	movl	$.LC0, (%esp)
	call	puts
	.loc 1 50 0
	movl	$.LC1, (%esp)
	call	puts
	.loc 1 60 0
	movl	$0, 4(%esp)
	leal	52(%esp), %eax
	movl	%eax, (%esp)
	call	gettimeofday
	.loc 1 64 0
	movl	$0, %ebx
	jmp	.L2
.L5:
	.loc 1 65 0
	movl	$0, %esi
	jmp	.L3
.L4:
	.loc 1 66 0
	movl	%ebx, 20(%esp)
	movl	%esi, %edi
	call	RandomInteger
	imull	$7000, 20(%esp), %edx
	addl	%edi, %edx
	movl	%eax, Array(,%edx,4)
	.loc 1 65 0
	addl	$1, %esi
.L3:
	cmpl	$6999, %esi
	jle	.L4
	.loc 1 64 0
	addl	$1, %ebx
.L2:
	cmpl	$6999, %ebx
	jle	.L5
	.loc 1 71 0
	movl	$0, %ebx
	jmp	.L6
.L11:
	.loc 1 72 0
	movl	$0, %esi
	jmp	.L7
.L10:
	.loc 1 74 0
	movl	%ebx, %edx
	movl	%esi, %eax
	imull	$7000, %edx, %edx
	leal	(%edx,%eax), %eax
	movl	Array(,%eax,4), %eax
	testl	%eax, %eax
	js	.L8
	.loc 1 79 0
	movl	%ebx, %edx
	movl	%esi, %eax
	imull	$7000, %edx, %edx
	leal	(%edx,%eax), %eax
	movl	Array(,%eax,4), %eax
	addl	%eax, 60(%esp)
	.loc 1 80 0
	addl	$1, 68(%esp)
	jmp	.L9
.L8:
	.loc 1 83 0
	movl	%ebx, %edx
	movl	%esi, %eax
	imull	$7000, %edx, %edx
	leal	(%edx,%eax), %eax
	movl	Array(,%eax,4), %eax
	addl	%eax, 64(%esp)
	.loc 1 84 0
	addl	$1, 72(%esp)
.L9:
	.loc 1 72 0
	addl	$1, %esi
.L7:
	cmpl	$6999, %esi
	jle	.L10
	.loc 1 71 0
	addl	$1, %ebx
.L6:
	cmpl	$6999, %ebx
	jle	.L11
	.loc 1 89 0
	movl	60(%esp), %eax
	movl	%eax, Postotal
	.loc 1 90 0
	movl	68(%esp), %eax
	movl	%eax, Poscnt
	.loc 1 91 0
	movl	64(%esp), %eax
	movl	%eax, Negtotal
	.loc 1 92 0
	movl	72(%esp), %eax
	movl	%eax, Negcnt
	.loc 1 96 0
	movl	$0, 4(%esp)
	leal	44(%esp), %eax
	movl	%eax, (%esp)
	call	gettimeofday
	.loc 1 97 0
	movl	44(%esp), %edx
	movl	52(%esp), %eax
	movl	%edx, %ecx
	subl	%eax, %ecx
	movl	%ecx, %eax
	imull	$1000, %eax, %ebx
	movl	48(%esp), %edx
	movl	56(%esp), %eax
	movl	%edx, %ecx
	subl	%eax, %ecx
	movl	$274877907, %edx
	movl	%ecx, %eax
	imull	%edx
	sarl	$6, %edx
	movl	%ecx, %eax
	sarl	$31, %eax
	movl	%edx, %ecx
	subl	%eax, %ecx
	movl	%ecx, %eax
	leal	(%ebx,%eax), %eax
	movl	%eax, 24(%esp)
	fildl	24(%esp)
	fldl	.LC2
	fdivrp	%st, %st(1)
	fstps	76(%esp)
	.loc 1 98 0
	movl	$.LC3, %eax
	movl	$1000000, 8(%esp)
	movl	$7000, 4(%esp)
	movl	%eax, (%esp)
	call	printf
	.loc 1 99 0
	movl	Postotal, %ecx
	movl	Poscnt, %edx
	movl	$.LC4, %eax
	movl	%ecx, 8(%esp)
	movl	%edx, 4(%esp)
	movl	%eax, (%esp)
	call	printf
	.loc 1 100 0
	movl	Negtotal, %ecx
	movl	Negcnt, %edx
	movl	$.LC5, %eax
	movl	%ecx, 8(%esp)
	movl	%edx, 4(%esp)
	movl	%eax, (%esp)
	call	printf
	.loc 1 101 0
	flds	76(%esp)
	movl	$.LC6, %eax
	fstpl	4(%esp)
	movl	%eax, (%esp)
	call	printf
	.loc 1 104 0
	movl	$1, %eax
	.loc 1 105 0
	addl	$84, %esp
	popl	%ebx
	popl	%esi
	popl	%edi
	movl	%ebp, %esp
	popl	%ebp
	ret
	.cfi_endproc
.LFE0:
	.size	main, .-main
.globl InitSeed
	.type	InitSeed, @function
InitSeed:
.LFB1:
	.loc 1 109 0
	.cfi_startproc
	pushl	%ebp
.LCFI2:
	.cfi_def_cfa_offset 8
	movl	%esp, %ebp
	.cfi_offset 5, -8
.LCFI3:
	.cfi_def_cfa_register 5
	.loc 1 110 0
	movl	$0, Seed
	.loc 1 111 0
	movl	$0, %eax
	.loc 1 112 0
	popl	%ebp
	ret
	.cfi_endproc
.LFE1:
	.size	InitSeed, .-InitSeed
.globl RandomInteger
	.type	RandomInteger, @function
RandomInteger:
.LFB2:
	.loc 1 116 0
	.cfi_startproc
	pushl	%ebp
.LCFI4:
	.cfi_def_cfa_offset 8
	movl	%esp, %ebp
	.cfi_offset 5, -8
.LCFI5:
	.cfi_def_cfa_register 5
	pushl	%ebx
	.loc 1 117 0
	movl	Seed, %eax
	imull	$133, %eax, %eax
	leal	81(%eax), %ecx
	movl	$271652039, %edx
	movl	%ecx, %eax
	imull	%edx
	sarl	$9, %edx
	movl	%ecx, %eax
	sarl	$31, %eax
	movl	%edx, %ebx
	.cfi_offset 3, -12
	subl	%eax, %ebx
	movl	%ebx, %eax
	imull	$8095, %eax, %eax
	movl	%ecx, %edx
	subl	%eax, %edx
	movl	%edx, %eax
	movl	%eax, Seed
	.loc 1 118 0
	movl	Seed, %eax
	.loc 1 119 0
	popl	%ebx
	popl	%ebp
	ret
	.cfi_endproc
.LFE2:
	.size	RandomInteger, .-RandomInteger
	.section	.rodata
	.align 8
.LC2:
	.long	0
	.long	1083129856
	.text
.Letext0:
	.section	.note.GNU-stack,"",@progbits
