	.file	"matmult_uncrustify.c"
	.text
.Ltext0:
	.cfi_sections	.debug_frame
	.comm	Seed,4,4
	.comm	ArrayA,1690000,32
	.comm	ArrayB,1690000,32
	.comm	ResultArray,1690000,32
.globl main
	.type	main, @function
main:
.LFB0:
	.file 1 "output/matmult_uncrustify.c"
	.loc 1 52 0
	.cfi_startproc
	pushl	%ebp
.LCFI0:
	.cfi_def_cfa_offset 8
	movl	%esp, %ebp
	.cfi_offset 5, -8
.LCFI1:
	.cfi_def_cfa_register 5
	andl	$-16, %esp
	subl	$16, %esp
	.loc 1 53 0
	call	InitSeed
	.loc 1 61 0
	movl	$ResultArray, 8(%esp)
	movl	$ArrayB, 4(%esp)
	movl	$ArrayA, (%esp)
	call	Test
	.loc 1 62 0
	leave
	ret
	.cfi_endproc
.LFE0:
	.size	main, .-main
.globl InitSeed
	.type	InitSeed, @function
InitSeed:
.LFB1:
	.loc 1 65 0
	.cfi_startproc
	pushl	%ebp
.LCFI2:
	.cfi_def_cfa_offset 8
	movl	%esp, %ebp
	.cfi_offset 5, -8
.LCFI3:
	.cfi_def_cfa_register 5
	.loc 1 73 0
	movl	$1, Seed
	.loc 1 74 0
	popl	%ebp
	ret
	.cfi_endproc
.LFE1:
	.size	InitSeed, .-InitSeed
.globl Test
	.type	Test, @function
Test:
.LFB2:
	.loc 1 77 0
	.cfi_startproc
	pushl	%ebp
.LCFI4:
	.cfi_def_cfa_offset 8
	movl	%esp, %ebp
	.cfi_offset 5, -8
.LCFI5:
	.cfi_def_cfa_register 5
	subl	$24, %esp
	.loc 1 92 0
	movl	8(%ebp), %eax
	movl	%eax, (%esp)
	call	Initialize
	.loc 1 93 0
	movl	12(%ebp), %eax
	movl	%eax, (%esp)
	call	Initialize
	.loc 1 95 0
	movl	16(%ebp), %eax
	movl	%eax, 8(%esp)
	movl	12(%ebp), %eax
	movl	%eax, 4(%esp)
	movl	8(%ebp), %eax
	movl	%eax, (%esp)
	call	Multiply
	.loc 1 104 0
	leave
	ret
	.cfi_endproc
.LFE2:
	.size	Test, .-Test
.globl Initialize
	.type	Initialize, @function
Initialize:
.LFB3:
	.loc 1 107 0
	.cfi_startproc
	pushl	%ebp
.LCFI6:
	.cfi_def_cfa_offset 8
	movl	%esp, %ebp
	.cfi_offset 5, -8
.LCFI7:
	.cfi_def_cfa_register 5
	pushl	%esi
	pushl	%ebx
	subl	$16, %esp
	.loc 1 114 0
	movl	$0, -16(%ebp)
	jmp	.L8
	.cfi_offset 3, -16
	.cfi_offset 6, -12
.L11:
	.loc 1 115 0
	movl	$0, -12(%ebp)
	jmp	.L9
.L10:
	.loc 1 116 0
	movl	-16(%ebp), %eax
	imull	$2600, %eax, %eax
	movl	%eax, %ebx
	addl	8(%ebp), %ebx
	movl	-12(%ebp), %esi
	call	RandomInteger
	movl	%eax, (%ebx,%esi,4)
	.loc 1 115 0
	addl	$1, -12(%ebp)
.L9:
	cmpl	$649, -12(%ebp)
	jle	.L10
	.loc 1 114 0
	addl	$1, -16(%ebp)
.L8:
	cmpl	$649, -16(%ebp)
	jle	.L11
	.loc 1 120 0
	addl	$16, %esp
	popl	%ebx
	popl	%esi
	popl	%ebp
	ret
	.cfi_endproc
.LFE3:
	.size	Initialize, .-Initialize
.globl RandomInteger
	.type	RandomInteger, @function
RandomInteger:
.LFB4:
	.loc 1 123 0
	.cfi_startproc
	pushl	%ebp
.LCFI8:
	.cfi_def_cfa_offset 8
	movl	%esp, %ebp
	.cfi_offset 5, -8
.LCFI9:
	.cfi_def_cfa_register 5
	pushl	%ebx
	.loc 1 127 0
	movl	Seed, %eax
	imull	$133, %eax, %eax
	leal	81(%eax), %ecx
	movl	$271652039, %edx
	movl	%ecx, %eax
	imull	%edx
	sarl	$9, %edx
	movl	%ecx, %eax
	sarl	$31, %eax
	movl	%edx, %ebx
	.cfi_offset 3, -12
	subl	%eax, %ebx
	movl	%ebx, %eax
	imull	$8095, %eax, %eax
	movl	%ecx, %edx
	subl	%eax, %edx
	movl	%edx, %eax
	movl	%eax, Seed
	.loc 1 128 0
	movl	Seed, %eax
	.loc 1 129 0
	popl	%ebx
	popl	%ebp
	ret
	.cfi_endproc
.LFE4:
	.size	RandomInteger, .-RandomInteger
.globl Multiply
	.type	Multiply, @function
Multiply:
.LFB5:
	.loc 1 149 0
	.cfi_startproc
	pushl	%ebp
.LCFI10:
	.cfi_def_cfa_offset 8
	movl	%esp, %ebp
	.cfi_offset 5, -8
.LCFI11:
	.cfi_def_cfa_register 5
	pushl	%edi
	pushl	%esi
	pushl	%ebx
	subl	$12, %esp
	.loc 1 155 0
	movl	$0, %ebx
	.cfi_offset 3, -20
	.cfi_offset 6, -16
	.cfi_offset 7, -12
	jmp	.L16
.L21:
	.loc 1 156 0
	movl	$0, %esi
	jmp	.L17
.L20:
	.loc 1 157 0
	movl	%ebx, %eax
	imull	$2600, %eax, %eax
	addl	16(%ebp), %eax
	movl	%esi, %edx
	movl	$0, (%eax,%edx,4)
	.loc 1 158 0
	movl	$0, %edi
	jmp	.L18
.L19:
	.loc 1 159 0
	movl	%ebx, %eax
	imull	$2600, %eax, %eax
	movl	16(%ebp), %edx
	addl	%eax, %edx
	movl	%edx, -24(%ebp)
	movl	%esi, -20(%ebp)
	movl	%ebx, %eax
	imull	$2600, %eax, %eax
	addl	16(%ebp), %eax
	movl	%esi, %edx
	movl	(%eax,%edx,4), %eax
	movl	%eax, -16(%ebp)
	movl	%ebx, %eax
	imull	$2600, %eax, %eax
	movl	%eax, %edx
	addl	8(%ebp), %edx
	movl	%edi, %eax
	movl	(%edx,%eax,4), %ecx
	movl	%edi, %eax
	imull	$2600, %eax, %eax
	movl	%eax, %edx
	addl	12(%ebp), %edx
	movl	%esi, %eax
	movl	(%edx,%eax,4), %eax
	imull	%ecx, %eax
	addl	-16(%ebp), %eax
	movl	-20(%ebp), %ecx
	movl	-24(%ebp), %edx
	movl	%eax, (%edx,%ecx,4)
	.loc 1 158 0
	addl	$1, %edi
.L18:
	cmpl	$649, %edi
	jle	.L19
	.loc 1 156 0
	addl	$1, %esi
.L17:
	cmpl	$649, %esi
	jle	.L20
	.loc 1 155 0
	addl	$1, %ebx
.L16:
	cmpl	$649, %ebx
	jle	.L21
	.loc 1 163 0
	addl	$12, %esp
	popl	%ebx
	popl	%esi
	popl	%edi
	popl	%ebp
	ret
	.cfi_endproc
.LFE5:
	.size	Multiply, .-Multiply
.Letext0:
	.section	.note.GNU-stack,"",@progbits
