	.file	"matmult_uncrustify.c"
	.text
.Ltext0:
	.cfi_sections	.debug_frame
	.comm	Seed,4,4
	.comm	ArrayA,2371600,32
	.comm	ArrayB,2371600,32
	.comm	ResultArray,2371600,32
	.section	.rodata
	.align 4
.LC0:
	.string	"\n   *** MATRIX MULTIPLICATION BENCHMARK TEST ***\n"
.LC1:
	.string	"RESULTS OF THE TEST:"
	.align 4
.LC3:
	.string	"    - Size of array is %d (%ld CLOCKS_PER_SEC)\n"
	.align 4
.LC4:
	.string	"    - Total multiplication time is %3.3f seconds\n\n"
	.text
.globl main
	.type	main, @function
main:
.LFB0:
	.file 1 "output/matmult_uncrustify.c"
	.loc 1 50 0
	.cfi_startproc
	pushl	%ebp
.LCFI0:
	.cfi_def_cfa_offset 8
	movl	%esp, %ebp
	.cfi_offset 5, -8
.LCFI1:
	.cfi_def_cfa_register 5
	andl	$-16, %esp
	pushl	%edi
	pushl	%esi
	pushl	%ebx
	subl	$84, %esp
	.loc 1 53 0
	.cfi_escape 0x10,0x3,0x7,0x55,0x9,0xf0,0x1a,0x9,0xf4,0x22
	.cfi_escape 0x10,0x6,0x7,0x55,0x9,0xf0,0x1a,0x9,0xf8,0x22
	.cfi_escape 0x10,0x7,0x7,0x55,0x9,0xf0,0x1a,0x9,0xfc,0x22
	call	InitSeed
	.loc 1 58 0
	movl	$.LC0, (%esp)
	call	puts
	.loc 1 59 0
	movl	$.LC1, (%esp)
	call	puts
	.loc 1 69 0
	movl	$0, 4(%esp)
	leal	68(%esp), %eax
	movl	%eax, (%esp)
	call	gettimeofday
	.loc 1 72 0
	movl	$ArrayA, (%esp)
	call	Initialize
	.loc 1 73 0
	movl	$ArrayB, (%esp)
	call	Initialize
	.loc 1 78 0
	movl	$0, %ebx
	jmp	.L2
.L7:
	.loc 1 79 0
	movl	$0, %esi
	jmp	.L3
.L6:
	.loc 1 80 0
	movl	%ebx, %edx
	movl	%esi, %eax
	imull	$770, %edx, %edx
	leal	(%edx,%eax), %eax
	movl	$0, ResultArray(,%eax,4)
	.loc 1 81 0
	movl	$0, %edi
	jmp	.L4
.L5:
	.loc 1 82 0
	movl	%ebx, 28(%esp)
	movl	%esi, 32(%esp)
	movl	%ebx, %eax
	movl	%esi, %edx
	imull	$770, %eax, %eax
	addl	%edx, %eax
	movl	ResultArray(,%eax,4), %eax
	movl	%eax, 36(%esp)
	movl	%ebx, %eax
	movl	%edi, %edx
	imull	$770, %eax, %eax
	addl	%edx, %eax
	movl	ArrayA(,%eax,4), %ecx
	movl	%edi, %eax
	movl	%esi, %edx
	imull	$770, %eax, %eax
	addl	%edx, %eax
	movl	ArrayB(,%eax,4), %eax
	imull	%ecx, %eax
	movl	36(%esp), %edx
	addl	%eax, %edx
	imull	$770, 28(%esp), %eax
	addl	32(%esp), %eax
	movl	%edx, ResultArray(,%eax,4)
	.loc 1 81 0
	addl	$1, %edi
.L4:
	cmpl	$769, %edi
	jle	.L5
	.loc 1 79 0
	addl	$1, %esi
.L3:
	cmpl	$769, %esi
	jle	.L6
	.loc 1 78 0
	addl	$1, %ebx
.L2:
	cmpl	$769, %ebx
	jle	.L7
	.loc 1 89 0
	movl	$0, 4(%esp)
	leal	60(%esp), %eax
	movl	%eax, (%esp)
	call	gettimeofday
	.loc 1 90 0
	movl	60(%esp), %edx
	movl	68(%esp), %eax
	movl	%edx, %ecx
	subl	%eax, %ecx
	movl	%ecx, %eax
	imull	$1000, %eax, %ebx
	movl	64(%esp), %edx
	movl	72(%esp), %eax
	movl	%edx, %ecx
	subl	%eax, %ecx
	movl	$274877907, %edx
	movl	%ecx, %eax
	imull	%edx
	sarl	$6, %edx
	movl	%ecx, %eax
	sarl	$31, %eax
	movl	%edx, %ecx
	subl	%eax, %ecx
	movl	%ecx, %eax
	leal	(%ebx,%eax), %eax
	movl	%eax, 40(%esp)
	fildl	40(%esp)
	fldl	.LC2
	fdivrp	%st, %st(1)
	fstps	76(%esp)
	.loc 1 91 0
	movl	$.LC3, %eax
	movl	$1000000, 8(%esp)
	movl	$770, 4(%esp)
	movl	%eax, (%esp)
	call	printf
	.loc 1 92 0
	flds	76(%esp)
	movl	$.LC4, %eax
	fstpl	4(%esp)
	movl	%eax, (%esp)
	call	printf
	.loc 1 94 0
	addl	$84, %esp
	popl	%ebx
	popl	%esi
	popl	%edi
	movl	%ebp, %esp
	popl	%ebp
	ret
	.cfi_endproc
.LFE0:
	.size	main, .-main
.globl InitSeed
	.type	InitSeed, @function
InitSeed:
.LFB1:
	.loc 1 100 0
	.cfi_startproc
	pushl	%ebp
.LCFI2:
	.cfi_def_cfa_offset 8
	movl	%esp, %ebp
	.cfi_offset 5, -8
.LCFI3:
	.cfi_def_cfa_register 5
	.loc 1 104 0
	movl	$1, Seed
	.loc 1 105 0
	popl	%ebp
	ret
	.cfi_endproc
.LFE1:
	.size	InitSeed, .-InitSeed
.globl Initialize
	.type	Initialize, @function
Initialize:
.LFB2:
	.loc 1 111 0
	.cfi_startproc
	pushl	%ebp
.LCFI4:
	.cfi_def_cfa_offset 8
	movl	%esp, %ebp
	.cfi_offset 5, -8
.LCFI5:
	.cfi_def_cfa_register 5
	pushl	%esi
	pushl	%ebx
	subl	$16, %esp
	.loc 1 115 0
	movl	$0, -16(%ebp)
	jmp	.L12
	.cfi_offset 3, -16
	.cfi_offset 6, -12
.L15:
	.loc 1 116 0
	movl	$0, -12(%ebp)
	jmp	.L13
.L14:
	.loc 1 117 0
	movl	-16(%ebp), %eax
	imull	$3080, %eax, %eax
	movl	%eax, %ebx
	addl	8(%ebp), %ebx
	movl	-12(%ebp), %esi
	call	RandomInteger
	movl	%eax, (%ebx,%esi,4)
	.loc 1 116 0
	addl	$1, -12(%ebp)
.L13:
	cmpl	$769, -12(%ebp)
	jle	.L14
	.loc 1 115 0
	addl	$1, -16(%ebp)
.L12:
	cmpl	$769, -16(%ebp)
	jle	.L15
	.loc 1 121 0
	addl	$16, %esp
	popl	%ebx
	popl	%esi
	popl	%ebp
	ret
	.cfi_endproc
.LFE2:
	.size	Initialize, .-Initialize
.globl RandomInteger
	.type	RandomInteger, @function
RandomInteger:
.LFB3:
	.loc 1 127 0
	.cfi_startproc
	pushl	%ebp
.LCFI6:
	.cfi_def_cfa_offset 8
	movl	%esp, %ebp
	.cfi_offset 5, -8
.LCFI7:
	.cfi_def_cfa_register 5
	pushl	%ebx
	.loc 1 128 0
	movl	Seed, %eax
	imull	$133, %eax, %eax
	leal	81(%eax), %ecx
	movl	$271652039, %edx
	movl	%ecx, %eax
	imull	%edx
	sarl	$9, %edx
	movl	%ecx, %eax
	sarl	$31, %eax
	movl	%edx, %ebx
	.cfi_offset 3, -12
	subl	%eax, %ebx
	movl	%ebx, %eax
	imull	$8095, %eax, %eax
	movl	%ecx, %edx
	subl	%eax, %edx
	movl	%edx, %eax
	movl	%eax, Seed
	.loc 1 129 0
	movl	Seed, %eax
	.loc 1 130 0
	popl	%ebx
	popl	%ebp
	ret
	.cfi_endproc
.LFE3:
	.size	RandomInteger, .-RandomInteger
	.section	.rodata
	.align 8
.LC2:
	.long	0
	.long	1083129856
	.text
.Letext0:
	.section	.note.GNU-stack,"",@progbits
